ccopy_reg
_reconstructor
p0
(cneat.genome
DefaultGenome
p1
c__builtin__
object
p2
Ntp3
Rp4
(dp5
S'connections'
p6
(dp7
(I-6
I4280
tp8
g0
(cneat.genes
DefaultConnectionGene
p9
g2
Ntp10
Rp11
(dp12
S'enabled'
p13
I00
sS'weight'
p14
F-1.9742683647138328
sS'key'
p15
g8
sbs(I-6
I3
tp16
g0
(g9
g2
Ntp17
Rp18
(dp19
g13
I01
sg14
F-1.3621061757867048
sg15
g16
sbs(I-9
I2
tp20
g0
(g9
g2
Ntp21
Rp22
(dp23
g13
I01
sg14
F-7.876109345644837
sg15
g20
sbs(I6012
I2
tp24
g0
(g9
g2
Ntp25
Rp26
(dp27
g13
I01
sg14
F2.3670418223896856
sg15
g24
sbs(I-7
I0
tp28
g0
(g9
g2
Ntp29
Rp30
(dp31
g13
I01
sg14
F1.260466146021058
sg15
g28
sbs(I4280
I6893
tp32
g0
(g9
g2
Ntp33
Rp34
(dp35
g13
I01
sg14
F0.4404826570276509
sg15
g32
sbs(I-3
I3
tp36
g0
(g9
g2
Ntp37
Rp38
(dp39
g13
I01
sg14
F1.2032165960812442
sg15
g36
sbs(I-3
I7161
tp40
g0
(g9
g2
Ntp41
Rp42
(dp43
g13
I01
sg14
F0.9071406188390743
sg15
g40
sbs(I-3
I6673
tp44
g0
(g9
g2
Ntp45
Rp46
(dp47
g13
I01
sg14
F2.3834034846571033
sg15
g44
sbs(I-4
I3
tp48
g0
(g9
g2
Ntp49
Rp50
(dp51
g13
I01
sg14
F0.7904266738350966
sg15
g48
sbs(I6673
I2
tp52
g0
(g9
g2
Ntp53
Rp54
(dp55
g13
I01
sg14
F-0.2231513532545244
sg15
g52
sbs(I-7
I2157
tp56
g0
(g9
g2
Ntp57
Rp58
(dp59
g13
I01
sg14
F-3.2809373034291776
sg15
g56
sbs(I-3
I2
tp60
g0
(g9
g2
Ntp61
Rp62
(dp63
g13
I00
sg14
F-0.524932782899724
sg15
g60
sbs(I-8
I2
tp64
g0
(g9
g2
Ntp65
Rp66
(dp67
g13
I01
sg14
F1.7163795776455029
sg15
g64
sbs(I-9
I1
tp68
g0
(g9
g2
Ntp69
Rp70
(dp71
g13
I01
sg14
F0.7346869222803583
sg15
g68
sbs(I-6
I2256
tp72
g0
(g9
g2
Ntp73
Rp74
(dp75
g13
I01
sg14
F-0.14867966772293206
sg15
g72
sbs(I-7
I3
tp76
g0
(g9
g2
Ntp77
Rp78
(dp79
g13
I01
sg14
F-5.236561820578297
sg15
g76
sbs(I4280
I1
tp80
g0
(g9
g2
Ntp81
Rp82
(dp83
g13
I01
sg14
F-3.013310960255266
sg15
g80
sbs(I-1
I2256
tp84
g0
(g9
g2
Ntp85
Rp86
(dp87
g13
I01
sg14
F1.260295219250994
sg15
g84
sbs(I-7
I2
tp88
g0
(g9
g2
Ntp89
Rp90
(dp91
g13
I01
sg14
F1.4666659455630922
sg15
g88
sbs(I-1
I2
tp92
g0
(g9
g2
Ntp93
Rp94
(dp95
g13
I01
sg14
F-0.8862763979941513
sg15
g92
sbs(I6012
I6673
tp96
g0
(g9
g2
Ntp97
Rp98
(dp99
g13
I01
sg14
F2.074277865057713
sg15
g96
sbs(I-7
I5203
tp100
g0
(g9
g2
Ntp101
Rp102
(dp103
g13
I01
sg14
F-0.6765439925492749
sg15
g100
sbs(I7367
I4280
tp104
g0
(g9
g2
Ntp105
Rp106
(dp107
g13
I01
sg14
F-1.3860794101598564
sg15
g104
sbs(I2256
I2
tp108
g0
(g9
g2
Ntp109
Rp110
(dp111
g13
I00
sg14
F1.305272910986392
sg15
g108
sbs(I6893
I2256
tp112
g0
(g9
g2
Ntp113
Rp114
(dp115
g13
I01
sg14
F1.1902609004106464
sg15
g112
sbs(I-6
I6012
tp116
g0
(g9
g2
Ntp117
Rp118
(dp119
g13
I01
sg14
F-1.4363443038461396
sg15
g116
sbs(I-3
I1
tp120
g0
(g9
g2
Ntp121
Rp122
(dp123
g13
I01
sg14
F0.15510753012195927
sg15
g120
sbs(I-9
I0
tp124
g0
(g9
g2
Ntp125
Rp126
(dp127
g13
I01
sg14
F-1.085246290153128
sg15
g124
sbs(I7161
I2
tp128
g0
(g9
g2
Ntp129
Rp130
(dp131
g13
I01
sg14
F0.15136519298921605
sg15
g128
sbs(I-5
I3
tp132
g0
(g9
g2
Ntp133
Rp134
(dp135
g13
I01
sg14
F0.735097388437528
sg15
g132
sbs(I-1
I6893
tp136
g0
(g9
g2
Ntp137
Rp138
(dp139
g13
I01
sg14
F-0.13090944393126452
sg15
g136
sbs(I-6
I7367
tp140
g0
(g9
g2
Ntp141
Rp142
(dp143
g13
I01
sg14
F1.291426974458969
sg15
g140
sbs(I6806
I4280
tp144
g0
(g9
g2
Ntp145
Rp146
(dp147
g13
I01
sg14
F1.5506072843324992
sg15
g144
sbs(I-1
I3
tp148
g0
(g9
g2
Ntp149
Rp150
(dp151
g13
I01
sg14
F-1.3385674376500512
sg15
g148
sbs(I-3
I0
tp152
g0
(g9
g2
Ntp153
Rp154
(dp155
g13
I01
sg14
F-1.3343476785409978
sg15
g152
sbs(I-6
I2
tp156
g0
(g9
g2
Ntp157
Rp158
(dp159
g13
I00
sg14
F3.7277969452495996
sg15
g156
sbs(I-6
I6806
tp160
g0
(g9
g2
Ntp161
Rp162
(dp163
g13
I01
sg14
F2.020258374965323
sg15
g160
sbs(I-4
I1
tp164
g0
(g9
g2
Ntp165
Rp166
(dp167
g13
I00
sg14
F0.2419126931869499
sg15
g164
sbs(I4280
I2
tp168
g0
(g9
g2
Ntp169
Rp170
(dp171
g13
I01
sg14
F-0.9381684544018292
sg15
g168
sbs(I5203
I3
tp172
g0
(g9
g2
Ntp173
Rp174
(dp175
g13
I01
sg14
F0.08345885629640032
sg15
g172
sbssS'nodes'
p176
(dp177
I0
g0
(cneat.genes
DefaultNodeGene
p178
g2
Ntp179
Rp180
(dp181
S'activation'
p182
S'sigmoid'
p183
sS'bias'
p184
F-1.9051989739408786
sS'response'
p185
F1.0
sg15
I0
sS'aggregation'
p186
S'sum'
p187
sbsI1
g0
(g178
g2
Ntp188
Rp189
(dp190
g182
g183
sg184
F-3.282332307747392
sg185
F1.0
sg15
I1
sg186
g187
sbsI2
g0
(g178
g2
Ntp191
Rp192
(dp193
g182
g183
sg184
F-5.348505685424294
sg185
F1.0
sg15
I2
sg186
g187
sbsI3
g0
(g178
g2
Ntp194
Rp195
(dp196
g182
g183
sg184
F-1.7587563733526133
sg185
F1.0
sg15
I3
sg186
g187
sbsI7367
g0
(g178
g2
Ntp197
Rp198
(dp199
g182
g183
sg184
F0.12804536642364509
sg185
F1.0
sg15
I7367
sg186
g187
sbsI2157
g0
(g178
g2
Ntp200
Rp201
(dp202
g182
g183
sg184
F1.6465873626500622
sg185
F1.0
sg15
I2157
sg186
g187
sbsI6893
g0
(g178
g2
Ntp203
Rp204
(dp205
g182
g183
sg184
F0.3207788838269643
sg185
F1.0
sg15
I6893
sg186
g187
sbsI2256
g0
(g178
g2
Ntp206
Rp207
(dp208
g182
g183
sg184
F1.8043801618120292
sg185
F1.0
sg15
I2256
sg186
g187
sbsI6673
g0
(g178
g2
Ntp209
Rp210
(dp211
g182
g183
sg184
F0.7678328194004709
sg185
F1.0
sg15
I6673
sg186
g187
sbsI5203
g0
(g178
g2
Ntp212
Rp213
(dp214
g182
g183
sg184
F-0.36514425047859295
sg185
F1.0
sg15
I5203
sg186
g187
sbsI6806
g0
(g178
g2
Ntp215
Rp216
(dp217
g182
g183
sg184
F-0.09441539747559202
sg185
F1.0
sg15
I6806
sg186
g187
sbsI4280
g0
(g178
g2
Ntp218
Rp219
(dp220
g182
g183
sg184
F0.184585424277404
sg185
F1.0
sg15
I4280
sg186
g187
sbsI7161
g0
(g178
g2
Ntp221
Rp222
(dp223
g182
g183
sg184
F-1.7079559238009545
sg185
F1.0
sg15
I7161
sg186
g187
sbsI6012
g0
(g178
g2
Ntp224
Rp225
(dp226
g182
g183
sg184
F2.2039260222794415
sg185
F1.0
sg15
I6012
sg186
g187
sbssg15
I32736
sS'fitness'
p227
I50
sb.