ccopy_reg
_reconstructor
p0
(cneat.genome
DefaultGenome
p1
c__builtin__
object
p2
Ntp3
Rp4
(dp5
S'connections'
p6
(dp7
(I-5
I0
tp8
g0
(cneat.genes
DefaultConnectionGene
p9
g2
Ntp10
Rp11
(dp12
S'enabled'
p13
I01
sS'weight'
p14
F0.2145505641771345
sS'key'
p15
g8
sbs(I-1
I1
tp16
g0
(g9
g2
Ntp17
Rp18
(dp19
g13
I01
sg14
F-3.2703573112887576
sg15
g16
sbs(I-1
I2
tp20
g0
(g9
g2
Ntp21
Rp22
(dp23
g13
I01
sg14
F2.2397478068282473
sg15
g20
sbs(I-2
I0
tp24
g0
(g9
g2
Ntp25
Rp26
(dp27
g13
I00
sg14
F2.0106707519505287
sg15
g24
sbs(I-6
I1
tp28
g0
(g9
g2
Ntp29
Rp30
(dp31
g13
I01
sg14
F6.1933730657250665
sg15
g28
sbs(I-9
I3
tp32
g0
(g9
g2
Ntp33
Rp34
(dp35
g13
I01
sg14
F-7.060126821577735
sg15
g32
sbs(I4586
I2310
tp36
g0
(g9
g2
Ntp37
Rp38
(dp39
g13
I00
sg14
F-0.07915570591522614
sg15
g36
sbs(I-4
I3
tp40
g0
(g9
g2
Ntp41
Rp42
(dp43
g13
I01
sg14
F6.359327130023983
sg15
g40
sbs(I-6
I2
tp44
g0
(g9
g2
Ntp45
Rp46
(dp47
g13
I00
sg14
F0.437598168853653
sg15
g44
sbs(I-3
I1
tp48
g0
(g9
g2
Ntp49
Rp50
(dp51
g13
I01
sg14
F-1.0702707332578667
sg15
g48
sbs(I-7
I0
tp52
g0
(g9
g2
Ntp53
Rp54
(dp55
g13
I01
sg14
F-0.9098815862030083
sg15
g52
sbs(I-2
I4586
tp56
g0
(g9
g2
Ntp57
Rp58
(dp59
g13
I01
sg14
F-0.23643321782213508
sg15
g56
sbs(I-9
I0
tp60
g0
(g9
g2
Ntp61
Rp62
(dp63
g13
I01
sg14
F0.47053463483149005
sg15
g60
sbs(I-7
I2
tp64
g0
(g9
g2
Ntp65
Rp66
(dp67
g13
I01
sg14
F-3.722126322996427
sg15
g64
sbs(I-5
I2
tp68
g0
(g9
g2
Ntp69
Rp70
(dp71
g13
I01
sg14
F0.06867098279875539
sg15
g68
sbs(I-2
I2310
tp72
g0
(g9
g2
Ntp73
Rp74
(dp75
g13
I00
sg14
F3.344150509944016
sg15
g72
sbssS'nodes'
p76
(dp77
I0
g0
(cneat.genes
DefaultNodeGene
p78
g2
Ntp79
Rp80
(dp81
S'activation'
p82
S'sigmoid'
p83
sS'bias'
p84
F2.3139836832090075
sS'response'
p85
F1.0
sg15
I0
sS'aggregation'
p86
S'sum'
p87
sbsI1
g0
(g78
g2
Ntp88
Rp89
(dp90
g82
g83
sg84
F0.006747903103254321
sg85
F1.0
sg15
I1
sg86
g87
sbsI2
g0
(g78
g2
Ntp91
Rp92
(dp93
g82
g83
sg84
F1.6579504456801233
sg85
F1.0
sg15
I2
sg86
g87
sbsI3
g0
(g78
g2
Ntp94
Rp95
(dp96
g82
g83
sg84
F0.2122871230699297
sg85
F1.0
sg15
I3
sg86
g87
sbsI2310
g0
(g78
g2
Ntp97
Rp98
(dp99
g82
g83
sg84
F-0.1653534437578727
sg85
F1.0
sg15
I2310
sg86
g87
sbsI4586
g0
(g78
g2
Ntp100
Rp101
(dp102
g82
g83
sg84
F1.252331044843687
sg85
F1.0
sg15
I4586
sg86
g87
sbssg15
I19925
sS'fitness'
p103
I250
sb.