ccopy_reg
_reconstructor
p0
(cneat.genome
DefaultGenome
p1
c__builtin__
object
p2
Ntp3
Rp4
(dp5
S'connections'
p6
(dp7
(I-2
I0
tp8
g0
(cneat.genes
DefaultConnectionGene
p9
g2
Ntp10
Rp11
(dp12
S'enabled'
p13
I01
sS'weight'
p14
F-0.47485655833164214
sS'key'
p15
g8
sbs(I2470
I1
tp16
g0
(g9
g2
Ntp17
Rp18
(dp19
g13
I01
sg14
F-0.5150645413482478
sg15
g16
sbs(I-6
I3
tp20
g0
(g9
g2
Ntp21
Rp22
(dp23
g13
I01
sg14
F-0.34486966104756284
sg15
g20
sbs(I2471
I3
tp24
g0
(g9
g2
Ntp25
Rp26
(dp27
g13
I01
sg14
F0.5576267369125973
sg15
g24
sbs(I-2
I1
tp28
g0
(g9
g2
Ntp29
Rp30
(dp31
g13
I01
sg14
F-0.8368591564593006
sg15
g28
sbs(I-5
I1
tp32
g0
(g9
g2
Ntp33
Rp34
(dp35
g13
I01
sg14
F-0.22253661335157976
sg15
g32
sbs(I-5
I2471
tp36
g0
(g9
g2
Ntp37
Rp38
(dp39
g13
I01
sg14
F0.390367394276807
sg15
g36
sbs(I2470
I2
tp40
g0
(g9
g2
Ntp41
Rp42
(dp43
g13
I01
sg14
F1.0466976089921691
sg15
g40
sbs(I-3
I2
tp44
g0
(g9
g2
Ntp45
Rp46
(dp47
g13
I01
sg14
F0.5175828414197092
sg15
g44
sbs(I-9
I1
tp48
g0
(g9
g2
Ntp49
Rp50
(dp51
g13
I01
sg14
F1.1508446063014102
sg15
g48
sbs(I-6
I2471
tp52
g0
(g9
g2
Ntp53
Rp54
(dp55
g13
I01
sg14
F-0.523488234375878
sg15
g52
sbs(I-4
I2470
tp56
g0
(g9
g2
Ntp57
Rp58
(dp59
g13
I01
sg14
F1.026402366907632
sg15
g56
sbs(I2471
I2
tp60
g0
(g9
g2
Ntp61
Rp62
(dp63
g13
I01
sg14
F-0.21434521647021565
sg15
g60
sbs(I-1
I2
tp64
g0
(g9
g2
Ntp65
Rp66
(dp67
g13
I01
sg14
F-2.2106898101630916
sg15
g64
sbs(I-8
I2470
tp68
g0
(g9
g2
Ntp69
Rp70
(dp71
g13
I01
sg14
F-0.29229351847180646
sg15
g68
sbs(I-2
I2
tp72
g0
(g9
g2
Ntp73
Rp74
(dp75
g13
I01
sg14
F0.0069925932366707855
sg15
g72
sbs(I-1
I1
tp76
g0
(g9
g2
Ntp77
Rp78
(dp79
g13
I01
sg14
F1.1778205637237515
sg15
g76
sbs(I-7
I2471
tp80
g0
(g9
g2
Ntp81
Rp82
(dp83
g13
I01
sg14
F1.3781016115250553
sg15
g80
sbs(I2470
I3
tp84
g0
(g9
g2
Ntp85
Rp86
(dp87
g13
I01
sg14
F1.7945501801212056
sg15
g84
sbs(I-9
I0
tp88
g0
(g9
g2
Ntp89
Rp90
(dp91
g13
I01
sg14
F2.5563154852736187
sg15
g88
sbs(I-4
I0
tp92
g0
(g9
g2
Ntp93
Rp94
(dp95
g13
I01
sg14
F-1.238711250537556
sg15
g92
sbs(I-4
I2471
tp96
g0
(g9
g2
Ntp97
Rp98
(dp99
g13
I01
sg14
F0.265844487913109
sg15
g96
sbs(I-9
I2471
tp100
g0
(g9
g2
Ntp101
Rp102
(dp103
g13
I01
sg14
F2.6782414038591473
sg15
g100
sbs(I-1
I2470
tp104
g0
(g9
g2
Ntp105
Rp106
(dp107
g13
I01
sg14
F0.09127969201786057
sg15
g104
sbs(I-1
I3
tp108
g0
(g9
g2
Ntp109
Rp110
(dp111
g13
I01
sg14
F0.053743713908180564
sg15
g108
sbs(I-1
I2471
tp112
g0
(g9
g2
Ntp113
Rp114
(dp115
g13
I01
sg14
F-0.465977561423303
sg15
g112
sbs(I-7
I2470
tp116
g0
(g9
g2
Ntp117
Rp118
(dp119
g13
I01
sg14
F-0.4234110477342439
sg15
g116
sbs(I-6
I2
tp120
g0
(g9
g2
Ntp121
Rp122
(dp123
g13
I01
sg14
F0.25361532347560944
sg15
g120
sbs(I-9
I3
tp124
g0
(g9
g2
Ntp125
Rp126
(dp127
g13
I01
sg14
F0.19744102122882792
sg15
g124
sbs(I-9
I2470
tp128
g0
(g9
g2
Ntp129
Rp130
(dp131
g13
I01
sg14
F-0.9883830514521683
sg15
g128
sbs(I-2
I2471
tp132
g0
(g9
g2
Ntp133
Rp134
(dp135
g13
I01
sg14
F-0.7260918649241315
sg15
g132
sbssS'nodes'
p136
(dp137
I0
g0
(cneat.genes
DefaultNodeGene
p138
g2
Ntp139
Rp140
(dp141
S'activation'
p142
S'sigmoid'
p143
sS'bias'
p144
F0.7192882240027255
sS'response'
p145
F1.0
sg15
I0
sS'aggregation'
p146
S'sum'
p147
sbsI1
g0
(g138
g2
Ntp148
Rp149
(dp150
g142
g143
sg144
F-1.1451509955700743
sg145
F1.0
sg15
I1
sg146
g147
sbsI2
g0
(g138
g2
Ntp151
Rp152
(dp153
g142
g143
sg144
F2.560156419581675
sg145
F1.0
sg15
I2
sg146
g147
sbsI3
g0
(g138
g2
Ntp154
Rp155
(dp156
g142
g143
sg144
F1.3670433102450688
sg145
F1.0
sg15
I3
sg146
g147
sbsI2470
g0
(g138
g2
Ntp157
Rp158
(dp159
g142
g143
sg144
F-0.8008337143544835
sg145
F1.0
sg15
I2470
sg146
g147
sbsI2471
g0
(g138
g2
Ntp160
Rp161
(dp162
g142
g143
sg144
F-1.5327007480911563
sg145
F1.0
sg15
I2471
sg146
g147
sbssg15
I3260
sS'fitness'
p163
I50
sb.