ccopy_reg
_reconstructor
p0
(cneat.genome
DefaultGenome
p1
c__builtin__
object
p2
Ntp3
Rp4
(dp5
S'connections'
p6
(dp7
(I-5
I0
tp8
g0
(cneat.genes
DefaultConnectionGene
p9
g2
Ntp10
Rp11
(dp12
S'enabled'
p13
I01
sS'weight'
p14
F2.4953933390880474
sS'key'
p15
g8
sbs(I-5
I1
tp16
g0
(g9
g2
Ntp17
Rp18
(dp19
g13
I01
sg14
F-1.3709190927385595
sg15
g16
sbs(I-1
I0
tp20
g0
(g9
g2
Ntp21
Rp22
(dp23
g13
I01
sg14
F-0.4199519146480418
sg15
g20
sbs(I-1
I2
tp24
g0
(g9
g2
Ntp25
Rp26
(dp27
g13
I01
sg14
F0.7319570586780436
sg15
g24
sbs(I-9
I2
tp28
g0
(g9
g2
Ntp29
Rp30
(dp31
g13
I01
sg14
F-4.32109734741544
sg15
g28
sbs(I-6
I2
tp32
g0
(g9
g2
Ntp33
Rp34
(dp35
g13
I00
sg14
F1.2337499838040278
sg15
g32
sbs(I-8
I1
tp36
g0
(g9
g2
Ntp37
Rp38
(dp39
g13
I01
sg14
F0.2429962060604956
sg15
g36
sbs(I-8
I3
tp40
g0
(g9
g2
Ntp41
Rp42
(dp43
g13
I01
sg14
F0.3469092220301855
sg15
g40
sbs(I-3
I2
tp44
g0
(g9
g2
Ntp45
Rp46
(dp47
g13
I01
sg14
F-0.981088963155129
sg15
g44
sbs(I-8
I2
tp48
g0
(g9
g2
Ntp49
Rp50
(dp51
g13
I00
sg14
F-0.4678566170204539
sg15
g48
sbs(I-3
I3
tp52
g0
(g9
g2
Ntp53
Rp54
(dp55
g13
I01
sg14
F0.7341084434395915
sg15
g52
sbs(I-7
I2
tp56
g0
(g9
g2
Ntp57
Rp58
(dp59
g13
I01
sg14
F2.563872590561342
sg15
g56
sbs(I-4
I1
tp60
g0
(g9
g2
Ntp61
Rp62
(dp63
g13
I01
sg14
F1.180831107212569
sg15
g60
sbs(I-7
I3
tp64
g0
(g9
g2
Ntp65
Rp66
(dp67
g13
I01
sg14
F-2.660057145117985
sg15
g64
sbs(I-5
I3
tp68
g0
(g9
g2
Ntp69
Rp70
(dp71
g13
I01
sg14
F1.399964986623475
sg15
g68
sbssS'nodes'
p72
(dp73
I0
g0
(cneat.genes
DefaultNodeGene
p74
g2
Ntp75
Rp76
(dp77
S'activation'
p78
S'sigmoid'
p79
sS'bias'
p80
F-0.28411941853011413
sS'response'
p81
F1.0
sg15
I0
sS'aggregation'
p82
S'sum'
p83
sbsI1
g0
(g74
g2
Ntp84
Rp85
(dp86
g78
g79
sg80
F1.2131542085133238
sg81
F1.0
sg15
I1
sg82
g83
sbsI2
g0
(g74
g2
Ntp87
Rp88
(dp89
g78
g79
sg80
F-1.7966882656519971
sg81
F1.0
sg15
I2
sg82
g83
sbsI3
g0
(g74
g2
Ntp90
Rp91
(dp92
g78
g79
sg80
F0.5570044287339448
sg81
F1.0
sg15
I3
sg82
g83
sbssg15
I27553
sS'fitness'
p93
I70
sb.