ccopy_reg
_reconstructor
p0
(cneat.genome
DefaultGenome
p1
c__builtin__
object
p2
Ntp3
Rp4
(dp5
S'connections'
p6
(dp7
(I-23
I0
tp8
g0
(cneat.genes
DefaultConnectionGene
p9
g2
Ntp10
Rp11
(dp12
S'enabled'
p13
I01
sS'weight'
p14
F0.367609134151069
sS'key'
p15
g8
sbs(I-10
I2
tp16
g0
(g9
g2
Ntp17
Rp18
(dp19
g13
I01
sg14
F-0.26764303368625425
sg15
g16
sbs(I-2
I0
tp20
g0
(g9
g2
Ntp21
Rp22
(dp23
g13
I01
sg14
F0.8437383281239504
sg15
g20
sbs(I-6
I3
tp24
g0
(g9
g2
Ntp25
Rp26
(dp27
g13
I01
sg14
F0.6828429745444504
sg15
g24
sbs(I-12
I0
tp28
g0
(g9
g2
Ntp29
Rp30
(dp31
g13
I01
sg14
F0.383507976193594
sg15
g28
sbs(I-15
I2
tp32
g0
(g9
g2
Ntp33
Rp34
(dp35
g13
I01
sg14
F-1.0608931209826369
sg15
g32
sbs(I-7
I0
tp36
g0
(g9
g2
Ntp37
Rp38
(dp39
g13
I01
sg14
F0.4803483422085053
sg15
g36
sbs(I-21
I1
tp40
g0
(g9
g2
Ntp41
Rp42
(dp43
g13
I01
sg14
F-0.3935084670626996
sg15
g40
sbs(I-13
I3
tp44
g0
(g9
g2
Ntp45
Rp46
(dp47
g13
I01
sg14
F1.4452040833255737
sg15
g44
sbs(I-8
I1
tp48
g0
(g9
g2
Ntp49
Rp50
(dp51
g13
I01
sg14
F-0.682041931612881
sg15
g48
sbs(I-21
I4140
tp52
g0
(g9
g2
Ntp53
Rp54
(dp55
g13
I01
sg14
F-0.2670028022312456
sg15
g52
sbs(I-20
I3
tp56
g0
(g9
g2
Ntp57
Rp58
(dp59
g13
I01
sg14
F-1.6768717455971525
sg15
g56
sbs(I-1
I0
tp60
g0
(g9
g2
Ntp61
Rp62
(dp63
g13
I01
sg14
F-1.007573394999581
sg15
g60
sbs(I-2
I1
tp64
g0
(g9
g2
Ntp65
Rp66
(dp67
g13
I01
sg14
F0.9811577685775675
sg15
g64
sbs(I-24
I2
tp68
g0
(g9
g2
Ntp69
Rp70
(dp71
g13
I01
sg14
F-0.3206301844758944
sg15
g68
sbs(I-14
I2
tp72
g0
(g9
g2
Ntp73
Rp74
(dp75
g13
I01
sg14
F1.30719332652635
sg15
g72
sbs(I-12
I1
tp76
g0
(g9
g2
Ntp77
Rp78
(dp79
g13
I01
sg14
F-0.016530762186854175
sg15
g76
sbs(I-15
I1
tp80
g0
(g9
g2
Ntp81
Rp82
(dp83
g13
I01
sg14
F-1.2739042604445128
sg15
g80
sbs(I-21
I0
tp84
g0
(g9
g2
Ntp85
Rp86
(dp87
g13
I01
sg14
F0.2500036671225446
sg15
g84
sbs(I-13
I2
tp88
g0
(g9
g2
Ntp89
Rp90
(dp91
g13
I01
sg14
F-0.6753811713696976
sg15
g88
sbs(I-16
I0
tp92
g0
(g9
g2
Ntp93
Rp94
(dp95
g13
I01
sg14
F0.930821608893052
sg15
g92
sbs(I-3
I2
tp96
g0
(g9
g2
Ntp97
Rp98
(dp99
g13
I01
sg14
F1.0307544823523889
sg15
g96
sbs(I-7
I3
tp100
g0
(g9
g2
Ntp101
Rp102
(dp103
g13
I01
sg14
F0.6471142511688791
sg15
g100
sbs(I-10
I0
tp104
g0
(g9
g2
Ntp105
Rp106
(dp107
g13
I01
sg14
F1.1226485511298367
sg15
g104
sbs(I-5
I0
tp108
g0
(g9
g2
Ntp109
Rp110
(dp111
g13
I01
sg14
F1.2241502222475231
sg15
g108
sbs(I-25
I0
tp112
g0
(g9
g2
Ntp113
Rp114
(dp115
g13
I01
sg14
F-0.9317017211020274
sg15
g112
sbs(I-17
I2
tp116
g0
(g9
g2
Ntp117
Rp118
(dp119
g13
I01
sg14
F0.6394888473530933
sg15
g116
sbs(I-25
I3
tp120
g0
(g9
g2
Ntp121
Rp122
(dp123
g13
I01
sg14
F1.0148337523318653
sg15
g120
sbs(I-23
I2
tp124
g0
(g9
g2
Ntp125
Rp126
(dp127
g13
I01
sg14
F-0.9793622011266283
sg15
g124
sbs(I-17
I0
tp128
g0
(g9
g2
Ntp129
Rp130
(dp131
g13
I01
sg14
F0.46034781089705035
sg15
g128
sbs(I-1
I2
tp132
g0
(g9
g2
Ntp133
Rp134
(dp135
g13
I01
sg14
F-0.2756705688317885
sg15
g132
sbs(I-11
I3
tp136
g0
(g9
g2
Ntp137
Rp138
(dp139
g13
I01
sg14
F-0.9831839963191671
sg15
g136
sbs(I-16
I1
tp140
g0
(g9
g2
Ntp141
Rp142
(dp143
g13
I01
sg14
F-0.21472212704842644
sg15
g140
sbs(I-3
I1
tp144
g0
(g9
g2
Ntp145
Rp146
(dp147
g13
I01
sg14
F1.2322484410369474
sg15
g144
sbs(I-8
I3
tp148
g0
(g9
g2
Ntp149
Rp150
(dp151
g13
I01
sg14
F-0.4022012743726006
sg15
g148
sbs(I-4
I0
tp152
g0
(g9
g2
Ntp153
Rp154
(dp155
g13
I01
sg14
F-0.5020190553166419
sg15
g152
sbs(I-7
I2
tp156
g0
(g9
g2
Ntp157
Rp158
(dp159
g13
I01
sg14
F-1.4019461129752926
sg15
g156
sbs(I-10
I1
tp160
g0
(g9
g2
Ntp161
Rp162
(dp163
g13
I01
sg14
F-0.17546041689224628
sg15
g160
sbs(I-5
I3
tp164
g0
(g9
g2
Ntp165
Rp166
(dp167
g13
I01
sg14
F0.9169923806825658
sg15
g164
sbs(I-19
I0
tp168
g0
(g9
g2
Ntp169
Rp170
(dp171
g13
I01
sg14
F-0.7255808483633202
sg15
g168
sbs(I-14
I0
tp172
g0
(g9
g2
Ntp173
Rp174
(dp175
g13
I01
sg14
F2.9789276054585776
sg15
g172
sbs(I-6
I1
tp176
g0
(g9
g2
Ntp177
Rp178
(dp179
g13
I01
sg14
F1.188498113584731
sg15
g176
sbs(I-12
I3
tp180
g0
(g9
g2
Ntp181
Rp182
(dp183
g13
I01
sg14
F-0.5555145515338091
sg15
g180
sbs(I-1
I3
tp184
g0
(g9
g2
Ntp185
Rp186
(dp187
g13
I01
sg14
F2.2473735527126646
sg15
g184
sbs(I-21
I2
tp188
g0
(g9
g2
Ntp189
Rp190
(dp191
g13
I01
sg14
F-0.751513555186881
sg15
g188
sbs(I-6
I2
tp192
g0
(g9
g2
Ntp193
Rp194
(dp195
g13
I00
sg14
F0.11942322169491866
sg15
g192
sbs(I-2
I3
tp196
g0
(g9
g2
Ntp197
Rp198
(dp199
g13
I01
sg14
F1.8851073656452866
sg15
g196
sbs(I-4
I1
tp200
g0
(g9
g2
Ntp201
Rp202
(dp203
g13
I01
sg14
F-1.4954103704565176
sg15
g200
sbs(I-14
I1
tp204
g0
(g9
g2
Ntp205
Rp206
(dp207
g13
I01
sg14
F1.434303889674084
sg15
g204
sbs(I-5
I2
tp208
g0
(g9
g2
Ntp209
Rp210
(dp211
g13
I01
sg14
F-0.32506320148426776
sg15
g208
sbs(I-25
I2
tp212
g0
(g9
g2
Ntp213
Rp214
(dp215
g13
I01
sg14
F-1.220764835167359
sg15
g212
sbssS'nodes'
p216
(dp217
I0
g0
(cneat.genes
DefaultNodeGene
p218
g2
Ntp219
Rp220
(dp221
S'activation'
p222
S'sigmoid'
p223
sS'bias'
p224
F-0.46596330842277867
sS'response'
p225
F1.0
sg15
I0
sS'aggregation'
p226
S'sum'
p227
sbsI1
g0
(g218
g2
Ntp228
Rp229
(dp230
g222
g223
sg224
F-1.4512662692804188
sg225
F1.0
sg15
I1
sg226
g227
sbsI2
g0
(g218
g2
Ntp231
Rp232
(dp233
g222
g223
sg224
F-1.3250099587754627
sg225
F1.0
sg15
I2
sg226
g227
sbsI3
g0
(g218
g2
Ntp234
Rp235
(dp236
g222
g223
sg224
F-0.9506318968060822
sg225
F1.0
sg15
I3
sg226
g227
sbsI4140
g0
(g218
g2
Ntp237
Rp238
(dp239
g222
g223
sg224
F1.5003549253073192
sg225
F1.0
sg15
I4140
sg226
g227
sbssg15
I6724
sS'fitness'
p240
I50
sb.