ccopy_reg
_reconstructor
p0
(cneat.genome
DefaultGenome
p1
c__builtin__
object
p2
Ntp3
Rp4
(dp5
S'connections'
p6
(dp7
(I1098
I1
tp8
g0
(cneat.genes
DefaultConnectionGene
p9
g2
Ntp10
Rp11
(dp12
S'enabled'
p13
I01
sS'weight'
p14
F0.7602103804748812
sS'key'
p15
g8
sbs(I-6
I3
tp16
g0
(g9
g2
Ntp17
Rp18
(dp19
g13
I01
sg14
F-1.2352658103787162
sg15
g16
sbs(I-2
I284
tp20
g0
(g9
g2
Ntp21
Rp22
(dp23
g13
I01
sg14
F-0.7637327502501303
sg15
g20
sbs(I284
I1
tp24
g0
(g9
g2
Ntp25
Rp26
(dp27
g13
I01
sg14
F-2.6212561915867356
sg15
g24
sbs(I-2
I2
tp28
g0
(g9
g2
Ntp29
Rp30
(dp31
g13
I01
sg14
F1.7801483633348505
sg15
g28
sbs(I-8
I1
tp32
g0
(g9
g2
Ntp33
Rp34
(dp35
g13
I01
sg14
F2.2987572886111445
sg15
g32
sbs(I-1
I3
tp36
g0
(g9
g2
Ntp37
Rp38
(dp39
g13
I01
sg14
F-2.112370238787104
sg15
g36
sbs(I-1
I1
tp40
g0
(g9
g2
Ntp41
Rp42
(dp43
g13
I01
sg14
F-0.032937730111023106
sg15
g40
sbs(I-5
I1
tp44
g0
(g9
g2
Ntp45
Rp46
(dp47
g13
I01
sg14
F0.7880449145497911
sg15
g44
sbs(I-4
I285
tp48
g0
(g9
g2
Ntp49
Rp50
(dp51
g13
I01
sg14
F-0.24076812402881265
sg15
g48
sbs(I-4
I3
tp52
g0
(g9
g2
Ntp53
Rp54
(dp55
g13
I01
sg14
F1.5019686246763084
sg15
g52
sbs(I284
I2
tp56
g0
(g9
g2
Ntp57
Rp58
(dp59
g13
I01
sg14
F1.1050393177312823
sg15
g56
sbs(I-9
I1
tp60
g0
(g9
g2
Ntp61
Rp62
(dp63
g13
I01
sg14
F-1.829214829942327
sg15
g60
sbs(I-7
I3
tp64
g0
(g9
g2
Ntp65
Rp66
(dp67
g13
I01
sg14
F-0.3083784728452179
sg15
g64
sbs(I-5
I0
tp68
g0
(g9
g2
Ntp69
Rp70
(dp71
g13
I01
sg14
F2.9345623966322005
sg15
g68
sbs(I-4
I284
tp72
g0
(g9
g2
Ntp73
Rp74
(dp75
g13
I01
sg14
F1.229290851999823
sg15
g72
sbs(I-3
I285
tp76
g0
(g9
g2
Ntp77
Rp78
(dp79
g13
I01
sg14
F0.7424364654653258
sg15
g76
sbs(I-9
I284
tp80
g0
(g9
g2
Ntp81
Rp82
(dp83
g13
I01
sg14
F-2.3570656973723967
sg15
g80
sbs(I-1
I2
tp84
g0
(g9
g2
Ntp85
Rp86
(dp87
g13
I01
sg14
F1.4393882293107
sg15
g84
sbs(I284
I3
tp88
g0
(g9
g2
Ntp89
Rp90
(dp91
g13
I01
sg14
F1.0746046571785963
sg15
g88
sbs(I-3
I1
tp92
g0
(g9
g2
Ntp93
Rp94
(dp95
g13
I01
sg14
F2.033199098338952
sg15
g92
sbs(I-9
I0
tp96
g0
(g9
g2
Ntp97
Rp98
(dp99
g13
I01
sg14
F-0.03429675020008127
sg15
g96
sbs(I0
I1098
tp100
g0
(g9
g2
Ntp101
Rp102
(dp103
g13
I01
sg14
F1.0016796891655528
sg15
g100
sbs(I-4
I0
tp104
g0
(g9
g2
Ntp105
Rp106
(dp107
g13
I01
sg14
F-0.1663158041627639
sg15
g104
sbs(I-1
I284
tp108
g0
(g9
g2
Ntp109
Rp110
(dp111
g13
I01
sg14
F-1.8349914245581092
sg15
g108
sbs(I-2
I3
tp112
g0
(g9
g2
Ntp113
Rp114
(dp115
g13
I01
sg14
F0.9789695569057729
sg15
g112
sbs(I-4
I1098
tp116
g0
(g9
g2
Ntp117
Rp118
(dp119
g13
I01
sg14
F-1.1922414783741238
sg15
g116
sbs(I-6
I284
tp120
g0
(g9
g2
Ntp121
Rp122
(dp123
g13
I01
sg14
F-0.8062491973168002
sg15
g120
sbs(I285
I1
tp124
g0
(g9
g2
Ntp125
Rp126
(dp127
g13
I01
sg14
F-0.8581300417004024
sg15
g124
sbs(I-4
I1
tp128
g0
(g9
g2
Ntp129
Rp130
(dp131
g13
I00
sg14
F0.13662951142676322
sg15
g128
sbs(I-7
I1
tp132
g0
(g9
g2
Ntp133
Rp134
(dp135
g13
I01
sg14
F-1.6034401078898408
sg15
g132
sbs(I285
I2
tp136
g0
(g9
g2
Ntp137
Rp138
(dp139
g13
I01
sg14
F0.42862023356894696
sg15
g136
sbs(I-8
I0
tp140
g0
(g9
g2
Ntp141
Rp142
(dp143
g13
I01
sg14
F1.6364084963999264
sg15
g140
sbs(I-5
I285
tp144
g0
(g9
g2
Ntp145
Rp146
(dp147
g13
I01
sg14
F-0.02795905459603949
sg15
g144
sbssS'nodes'
p148
(dp149
I0
g0
(cneat.genes
DefaultNodeGene
p150
g2
Ntp151
Rp152
(dp153
S'activation'
p154
S'sigmoid'
p155
sS'bias'
p156
F-1.075705111506426
sS'response'
p157
F1.0
sg15
I0
sS'aggregation'
p158
S'sum'
p159
sbsI1
g0
(g150
g2
Ntp160
Rp161
(dp162
g154
g155
sg156
F-0.3751130587543418
sg157
F1.0
sg15
I1
sg158
g159
sbsI2
g0
(g150
g2
Ntp163
Rp164
(dp165
g154
g155
sg156
F-0.9303071964780146
sg157
F1.0
sg15
I2
sg158
g159
sbsI3
g0
(g150
g2
Ntp166
Rp167
(dp168
g154
g155
sg156
F0.5506546654679894
sg157
F1.0
sg15
I3
sg158
g159
sbsI1098
g0
(g150
g2
Ntp169
Rp170
(dp171
g154
g155
sg156
F0.7119210467349824
sg157
F1.0
sg15
I1098
sg158
g159
sbsI284
g0
(g150
g2
Ntp172
Rp173
(dp174
g154
g155
sg156
F0.05590366642897554
sg157
F1.0
sg15
I284
sg158
g159
sbsI285
g0
(g150
g2
Ntp175
Rp176
(dp177
g154
g155
sg156
F-0.39290712722607524
sg157
F1.0
sg15
I285
sg158
g159
sbssg15
I925
sS'fitness'
p178
I210
sb.