(lp0
ccopy_reg
_reconstructor
p1
(cneat.genome
DefaultGenome
p2
c__builtin__
object
p3
Ntp4
Rp5
(dp6
S'connections'
p7
(dp8
(I-13
I11752
tp9
g1
(cneat.genes
DefaultConnectionGene
p10
g3
Ntp11
Rp12
(dp13
S'enabled'
p14
I01
sS'weight'
p15
F-1.1115945700119103
sS'key'
p16
g9
sbs(I11752
I1
tp17
g1
(g10
g3
Ntp18
Rp19
(dp20
g14
I01
sg15
F-3.452351987413014
sg16
g17
sbs(I-11
I1
tp21
g1
(g10
g3
Ntp22
Rp23
(dp24
g14
I01
sg15
F-1.1328497558106354
sg16
g21
sbs(I-6
I3
tp25
g1
(g10
g3
Ntp26
Rp27
(dp28
g14
I01
sg15
F-0.7466359602973572
sg16
g25
sbs(I-15
I2
tp29
g1
(g10
g3
Ntp30
Rp31
(dp32
g14
I01
sg15
F-1.5993410991805974
sg16
g29
sbs(I-18
I1
tp33
g1
(g10
g3
Ntp34
Rp35
(dp36
g14
I00
sg15
F0.6441839605921137
sg16
g33
sbs(I-22
I13006
tp37
g1
(g10
g3
Ntp38
Rp39
(dp40
g14
I01
sg15
F1.0800531696833753
sg16
g37
sbs(I-8
I1
tp41
g1
(g10
g3
Ntp42
Rp43
(dp44
g14
I01
sg15
F0.7269301284206029
sg16
g41
sbs(I-22
I0
tp45
g1
(g10
g3
Ntp46
Rp47
(dp48
g14
I01
sg15
F2.0576653687061253
sg16
g45
sbs(I-10
I3
tp49
g1
(g10
g3
Ntp50
Rp51
(dp52
g14
I01
sg15
F-0.30805000754478595
sg16
g49
sbs(I-5
I1
tp53
g1
(g10
g3
Ntp54
Rp55
(dp56
g14
I01
sg15
F0.2533520999947649
sg16
g53
sbs(I-6
I0
tp57
g1
(g10
g3
Ntp58
Rp59
(dp60
g14
I01
sg15
F-1.1232128317419277
sg16
g57
sbs(I-23
I3
tp61
g1
(g10
g3
Ntp62
Rp63
(dp64
g14
I01
sg15
F3.2779355295071833
sg16
g61
sbs(I-15
I1
tp65
g1
(g10
g3
Ntp66
Rp67
(dp68
g14
I01
sg15
F1.097433902520496
sg16
g65
sbs(I-21
I0
tp69
g1
(g10
g3
Ntp70
Rp71
(dp72
g14
I01
sg15
F2.706465945470665
sg16
g69
sbs(I-13
I2
tp73
g1
(g10
g3
Ntp74
Rp75
(dp76
g14
I01
sg15
F-0.6799595506945939
sg16
g73
sbs(I-16
I0
tp77
g1
(g10
g3
Ntp78
Rp79
(dp80
g14
I01
sg15
F2.204329145095811
sg16
g77
sbs(I-3
I2
tp81
g1
(g10
g3
Ntp82
Rp83
(dp84
g14
I01
sg15
F0.03901438590746309
sg16
g81
sbs(I-8
I2
tp85
g1
(g10
g3
Ntp86
Rp87
(dp88
g14
I01
sg15
F0.022639314931167415
sg16
g85
sbs(I-10
I0
tp89
g1
(g10
g3
Ntp90
Rp91
(dp92
g14
I01
sg15
F-1.3987178285548896
sg16
g89
sbs(I-19
I1
tp93
g1
(g10
g3
Ntp94
Rp95
(dp96
g14
I00
sg15
F-2.753332980581507
sg16
g93
sbs(I-1
I2
tp97
g1
(g10
g3
Ntp98
Rp99
(dp100
g14
I01
sg15
F-0.6391804644942445
sg16
g97
sbs(I-14
I3
tp101
g1
(g10
g3
Ntp102
Rp103
(dp104
g14
I01
sg15
F-1.6041764140934154
sg16
g101
sbs(I-6
I1
tp105
g1
(g10
g3
Ntp106
Rp107
(dp108
g14
I01
sg15
F-1.1376612954630427
sg16
g105
sbs(I-20
I0
tp109
g1
(g10
g3
Ntp110
Rp111
(dp112
g14
I00
sg15
F0.4249929388532632
sg16
g109
sbs(I-23
I2
tp113
g1
(g10
g3
Ntp114
Rp115
(dp116
g14
I01
sg15
F-0.7086260527038123
sg16
g113
sbs(I-2
I2
tp117
g1
(g10
g3
Ntp118
Rp119
(dp120
g14
I01
sg15
F-1.4749095444447595
sg16
g117
sbs(I-11
I3
tp121
g1
(g10
g3
Ntp122
Rp123
(dp124
g14
I01
sg15
F-0.3987268642885066
sg16
g121
sbs(I-9
I0
tp125
g1
(g10
g3
Ntp126
Rp127
(dp128
g14
I01
sg15
F2.3695625272410963
sg16
g125
sbs(I13006
I0
tp129
g1
(g10
g3
Ntp130
Rp131
(dp132
g14
I01
sg15
F-0.8249102689904335
sg16
g129
sbs(I-7
I0
tp133
g1
(g10
g3
Ntp134
Rp135
(dp136
g14
I01
sg15
F-5.45748053074962
sg16
g133
sbs(I-4
I0
tp137
g1
(g10
g3
Ntp138
Rp139
(dp140
g14
I01
sg15
F0.8896613433320009
sg16
g137
sbs(I-18
I3
tp141
g1
(g10
g3
Ntp142
Rp143
(dp144
g14
I01
sg15
F0.6632358245841201
sg16
g141
sbs(I-10
I1
tp145
g1
(g10
g3
Ntp146
Rp147
(dp148
g14
I01
sg15
F2.7353356472701464
sg16
g145
sbs(I-13
I1
tp149
g1
(g10
g3
Ntp150
Rp151
(dp152
g14
I01
sg15
F-8.643081293040197
sg16
g149
sbs(I-5
I3
tp153
g1
(g10
g3
Ntp154
Rp155
(dp156
g14
I01
sg15
F1.1186732930936185
sg16
g153
sbs(I-19
I0
tp157
g1
(g10
g3
Ntp158
Rp159
(dp160
g14
I01
sg15
F-0.6492422591414133
sg16
g157
sbs(I-22
I2
tp161
g1
(g10
g3
Ntp162
Rp163
(dp164
g14
I01
sg15
F0.9504387745151656
sg16
g161
sbs(I-14
I0
tp165
g1
(g10
g3
Ntp166
Rp167
(dp168
g14
I00
sg15
F0.3999528361273434
sg16
g165
sbs(I-25
I3
tp169
g1
(g10
g3
Ntp170
Rp171
(dp172
g14
I01
sg15
F-3.224031965245385
sg16
g169
sbs(I-20
I1
tp173
g1
(g10
g3
Ntp174
Rp175
(dp176
g14
I00
sg15
F-2.685614442849298
sg16
g173
sbs(I-12
I3
tp177
g1
(g10
g3
Ntp178
Rp179
(dp180
g14
I00
sg15
F2.8845051759816953
sg16
g177
sbs(I-2
I3
tp181
g1
(g10
g3
Ntp182
Rp183
(dp184
g14
I01
sg15
F2.049084046133547
sg16
g181
sbs(I-24
I0
tp185
g1
(g10
g3
Ntp186
Rp187
(dp188
g14
I01
sg15
F-0.32936968040368403
sg16
g185
sbs(I-11
I2
tp189
g1
(g10
g3
Ntp190
Rp191
(dp192
g14
I00
sg15
F1.5322134945369217
sg16
g189
sbs(I-16
I2
tp193
g1
(g10
g3
Ntp194
Rp195
(dp196
g14
I01
sg15
F0.24276468189341344
sg16
g193
sbs(I-1
I3
tp197
g1
(g10
g3
Ntp198
Rp199
(dp200
g14
I00
sg15
F-1.6362344459991516
sg16
g197
sbs(I-4
I1
tp201
g1
(g10
g3
Ntp202
Rp203
(dp204
g14
I01
sg15
F-3.5722727350874246
sg16
g201
sbs(I-18
I0
tp205
g1
(g10
g3
Ntp206
Rp207
(dp208
g14
I01
sg15
F-3.8266473941700574
sg16
g205
sbs(I-17
I3
tp209
g1
(g10
g3
Ntp210
Rp211
(dp212
g14
I00
sg15
F-0.15640823018630767
sg16
g209
sbs(I-13
I0
tp213
g1
(g10
g3
Ntp214
Rp215
(dp216
g14
I01
sg15
F1.018974036748923
sg16
g213
sbs(I-22
I3
tp217
g1
(g10
g3
Ntp218
Rp219
(dp220
g14
I00
sg15
F0.1376724145592528
sg16
g217
sbs(I-14
I1
tp221
g1
(g10
g3
Ntp222
Rp223
(dp224
g14
I01
sg15
F-0.06831787109783617
sg16
g221
sbssS'nodes'
p225
(dp226
I0
g1
(cneat.genes
DefaultNodeGene
p227
g3
Ntp228
Rp229
(dp230
S'activation'
p231
S'sigmoid'
p232
sS'bias'
p233
F1.1484789328018454
sS'response'
p234
F1.0
sg16
I0
sS'aggregation'
p235
S'sum'
p236
sbsI1
g1
(g227
g3
Ntp237
Rp238
(dp239
g231
g232
sg233
F2.0736118260537992
sg234
F1.0
sg16
I1
sg235
g236
sbsI2
g1
(g227
g3
Ntp240
Rp241
(dp242
g231
g232
sg233
F-9.949980048690383
sg234
F1.0
sg16
I2
sg235
g236
sbsI3
g1
(g227
g3
Ntp243
Rp244
(dp245
g231
g232
sg233
F-1.9727606837678235
sg234
F1.0
sg16
I3
sg235
g236
sbsI11752
g1
(g227
g3
Ntp246
Rp247
(dp248
g231
g232
sg233
F-0.1949837163134345
sg234
F1.0
sg16
I11752
sg235
g236
sbsI13006
g1
(g227
g3
Ntp249
Rp250
(dp251
g231
g232
sg233
F0.36628583870049825
sg234
F1.0
sg16
I13006
sg235
g236
sbssg16
I90461
sS'fitness'
p252
I80
sba(lp253
I5
aI25
aI2
aI50
aa.