ccopy_reg
_reconstructor
p0
(cneat.genome
DefaultGenome
p1
c__builtin__
object
p2
Ntp3
Rp4
(dp5
S'connections'
p6
(dp7
(I-34
I2
tp8
g0
(cneat.genes
DefaultConnectionGene
p9
g2
Ntp10
Rp11
(dp12
S'enabled'
p13
I01
sS'weight'
p14
F0.9565202170717295
sS'key'
p15
g8
sbs(I-1
I0
tp16
g0
(g9
g2
Ntp17
Rp18
(dp19
g13
I01
sg14
F-0.4525697996705994
sg15
g16
sbs(I-46
I2
tp20
g0
(g9
g2
Ntp21
Rp22
(dp23
g13
I01
sg14
F1.2689012545549943
sg15
g20
sbs(I-98
I3
tp24
g0
(g9
g2
Ntp25
Rp26
(dp27
g13
I01
sg14
F0.09172607465096638
sg15
g24
sbs(I-16
I3
tp28
g0
(g9
g2
Ntp29
Rp30
(dp31
g13
I01
sg14
F1.029089525703503
sg15
g28
sbs(I-93
I1
tp32
g0
(g9
g2
Ntp33
Rp34
(dp35
g13
I01
sg14
F-0.3057155395534784
sg15
g32
sbs(I-53
I3
tp36
g0
(g9
g2
Ntp37
Rp38
(dp39
g13
I01
sg14
F-0.19293973196935899
sg15
g36
sbs(I-67
I1
tp40
g0
(g9
g2
Ntp41
Rp42
(dp43
g13
I01
sg14
F-0.383567470577441
sg15
g40
sbs(I-18
I1
tp44
g0
(g9
g2
Ntp45
Rp46
(dp47
g13
I01
sg14
F0.14612405171545528
sg15
g44
sbs(I-62
I3
tp48
g0
(g9
g2
Ntp49
Rp50
(dp51
g13
I01
sg14
F-1.2669454633088393
sg15
g48
sbs(I-13
I3
tp52
g0
(g9
g2
Ntp53
Rp54
(dp55
g13
I01
sg14
F-0.7917355944211175
sg15
g52
sbs(I-65
I2
tp56
g0
(g9
g2
Ntp57
Rp58
(dp59
g13
I01
sg14
F-2.0230856341425003
sg15
g56
sbs(I-41
I1
tp60
g0
(g9
g2
Ntp61
Rp62
(dp63
g13
I01
sg14
F-2.6548072140230663
sg15
g60
sbs(I-18
I628
tp64
g0
(g9
g2
Ntp65
Rp66
(dp67
g13
I01
sg14
F-2.609072385063148
sg15
g64
sbs(I-59
I3
tp68
g0
(g9
g2
Ntp69
Rp70
(dp71
g13
I01
sg14
F-1.4304863827375516
sg15
g68
sbs(I-10
I3
tp72
g0
(g9
g2
Ntp73
Rp74
(dp75
g13
I01
sg14
F-1.0899677504763212
sg15
g72
sbs(I-29
I2
tp76
g0
(g9
g2
Ntp77
Rp78
(dp79
g13
I01
sg14
F-3.124684741876579
sg15
g76
sbs(I-57
I0
tp80
g0
(g9
g2
Ntp81
Rp82
(dp83
g13
I01
sg14
F-0.6893200610439945
sg15
g80
sbs(I-24
I2
tp84
g0
(g9
g2
Ntp85
Rp86
(dp87
g13
I01
sg14
F-1.8167714307732048
sg15
g84
sbs(I-76
I3
tp88
g0
(g9
g2
Ntp89
Rp90
(dp91
g13
I01
sg14
F-0.9503258189571304
sg15
g88
sbs(I-52
I0
tp92
g0
(g9
g2
Ntp93
Rp94
(dp95
g13
I01
sg14
F0.64245455843924
sg15
g92
sbs(I-26
I0
tp96
g0
(g9
g2
Ntp97
Rp98
(dp99
g13
I01
sg14
F1.3336740567104584
sg15
g96
sbs(I-94
I1
tp100
g0
(g9
g2
Ntp101
Rp102
(dp103
g13
I01
sg14
F3.2703623828243034
sg15
g100
sbs(I-70
I2
tp104
g0
(g9
g2
Ntp105
Rp106
(dp107
g13
I01
sg14
F1.3229450641924447
sg15
g104
sbs(I-21
I0
tp108
g0
(g9
g2
Ntp109
Rp110
(dp111
g13
I01
sg14
F-0.24897094860460744
sg15
g108
sbs(I-81
I628
tp112
g0
(g9
g2
Ntp113
Rp114
(dp115
g13
I01
sg14
F-0.17633503263820274
sg15
g112
sbs(I-40
I3
tp116
g0
(g9
g2
Ntp117
Rp118
(dp119
g13
I01
sg14
F-0.557569127070671
sg15
g116
sbs(I-16
I0
tp120
g0
(g9
g2
Ntp121
Rp122
(dp123
g13
I01
sg14
F2.465407913101342
sg15
g120
sbs(I-68
I1
tp124
g0
(g9
g2
Ntp125
Rp126
(dp127
g13
I01
sg14
F0.7095038880934301
sg15
g124
sbs(I-50
I628
tp128
g0
(g9
g2
Ntp129
Rp130
(dp131
g13
I01
sg14
F-1.118215604720702
sg15
g128
sbs(I-60
I628
tp132
g0
(g9
g2
Ntp133
Rp134
(dp135
g13
I01
sg14
F-0.5509083102848948
sg15
g132
sbs(I-86
I3
tp136
g0
(g9
g2
Ntp137
Rp138
(dp139
g13
I01
sg14
F-0.12254117053232583
sg15
g136
sbs(I-37
I3
tp140
g0
(g9
g2
Ntp141
Rp142
(dp143
g13
I01
sg14
F-1.9604374575297137
sg15
g140
sbs(I-32
I1
tp144
g0
(g9
g2
Ntp145
Rp146
(dp147
g13
I01
sg14
F0.03070572627254431
sg15
g144
sbs(I-60
I3
tp148
g0
(g9
g2
Ntp149
Rp150
(dp151
g13
I01
sg14
F-0.46247794271861387
sg15
g148
sbs(I-83
I3
tp152
g0
(g9
g2
Ntp153
Rp154
(dp155
g13
I01
sg14
F1.3741491488572124
sg15
g152
sbs(I-29
I1
tp156
g0
(g9
g2
Ntp157
Rp158
(dp159
g13
I01
sg14
F-0.5404217000251912
sg15
g156
sbs(I-76
I0
tp160
g0
(g9
g2
Ntp161
Rp162
(dp163
g13
I01
sg14
F0.232912859327068
sg15
g160
sbs(I-3
I1
tp164
g0
(g9
g2
Ntp165
Rp166
(dp167
g13
I01
sg14
F0.00510465704644622
sg15
g164
sbs(I-71
I0
tp168
g0
(g9
g2
Ntp169
Rp170
(dp171
g13
I01
sg14
F-2.2761491108233196
sg15
g168
sbs(I-99
I2
tp172
g0
(g9
g2
Ntp173
Rp174
(dp175
g13
I01
sg14
F-1.7077424927271818
sg15
g172
sbs(I-50
I0
tp176
g0
(g9
g2
Ntp177
Rp178
(dp179
g13
I01
sg14
F0.3464250096076698
sg15
g176
sbs(I-94
I2
tp180
g0
(g9
g2
Ntp181
Rp182
(dp183
g13
I01
sg14
F0.1537726352588126
sg15
g180
sbs(I-82
I628
tp184
g0
(g9
g2
Ntp185
Rp186
(dp187
g13
I01
sg14
F1.1170718834125846
sg15
g184
sbs(I-31
I0
tp188
g0
(g9
g2
Ntp189
Rp190
(dp191
g13
I01
sg14
F2.535909644707135
sg15
g188
sbs(I-19
I0
tp192
g0
(g9
g2
Ntp193
Rp194
(dp195
g13
I01
sg14
F2.2759141395967046
sg15
g192
sbs(I-14
I0
tp196
g0
(g9
g2
Ntp197
Rp198
(dp199
g13
I01
sg14
F-0.21717774294296505
sg15
g196
sbs(I-42
I2
tp200
g0
(g9
g2
Ntp201
Rp202
(dp203
g13
I01
sg14
F0.0369411273021818
sg15
g200
sbs(I-12
I3
tp204
g0
(g9
g2
Ntp205
Rp206
(dp207
g13
I01
sg14
F-2.1063142636139567
sg15
g204
sbs(I-89
I1
tp208
g0
(g9
g2
Ntp209
Rp210
(dp211
g13
I01
sg14
F-2.0824521468502857
sg15
g208
sbs(I-47
I628
tp212
g0
(g9
g2
Ntp213
Rp214
(dp215
g13
I01
sg14
F1.1308653397765172
sg15
g212
sbs(I-9
I3
tp216
g0
(g9
g2
Ntp217
Rp218
(dp219
g13
I01
sg14
F-1.036804537276327
sg15
g216
sbs(I-77
I2
tp220
g0
(g9
g2
Ntp221
Rp222
(dp223
g13
I01
sg14
F0.48896596486973226
sg15
g220
sbs(I-53
I1
tp224
g0
(g9
g2
Ntp225
Rp226
(dp227
g13
I01
sg14
F-0.9457361854248149
sg15
g224
sbs(I-67
I2
tp228
g0
(g9
g2
Ntp229
Rp230
(dp231
g13
I01
sg14
F0.6824575822308996
sg15
g228
sbs(I-100
I0
tp232
g0
(g9
g2
Ntp233
Rp234
(dp235
g13
I01
sg14
F0.7929795474148689
sg15
g232
sbs(I-47
I1
tp236
g0
(g9
g2
Ntp237
Rp238
(dp239
g13
I01
sg14
F0.6427798804387769
sg15
g236
sbs(I-27
I1
tp240
g0
(g9
g2
Ntp241
Rp242
(dp243
g13
I01
sg14
F-0.8175713991252593
sg15
g240
sbs(I-95
I0
tp244
g0
(g9
g2
Ntp245
Rp246
(dp247
g13
I01
sg14
F-0.23540587614256014
sg15
g244
sbs(I-69
I0
tp248
g0
(g9
g2
Ntp249
Rp250
(dp251
g13
I01
sg14
F0.9999050305803542
sg15
g248
sbs(I-20
I2
tp252
g0
(g9
g2
Ntp253
Rp254
(dp255
g13
I01
sg14
F-0.49431109540238005
sg15
g252
sbs(I-64
I0
tp256
g0
(g9
g2
Ntp257
Rp258
(dp259
g13
I01
sg14
F0.09596988459689426
sg15
g256
sbs(I-43
I0
tp260
g0
(g9
g2
Ntp261
Rp262
(dp263
g13
I01
sg14
F2.227614604372811
sg15
g260
sbs(I-19
I3
tp264
g0
(g9
g2
Ntp265
Rp266
(dp267
g13
I01
sg14
F-0.2498726123981284
sg15
g264
sbs(I-87
I2
tp268
g0
(g9
g2
Ntp269
Rp270
(dp271
g13
I01
sg14
F1.2591808390370844
sg15
g268
sbs(I-38
I0
tp272
g0
(g9
g2
Ntp273
Rp274
(dp275
g13
I01
sg14
F-2.5760273274734473
sg15
g272
sbs(I-66
I2
tp276
g0
(g9
g2
Ntp277
Rp278
(dp279
g13
I01
sg14
F0.8052460509927858
sg15
g276
sbs(I-85
I3
tp280
g0
(g9
g2
Ntp281
Rp282
(dp283
g13
I01
sg14
F-0.3306448456624365
sg15
g280
sbs(I-79
I628
tp284
g0
(g9
g2
Ntp285
Rp286
(dp287
g13
I01
sg14
F0.7938801196337956
sg15
g284
sbs(I-12
I0
tp288
g0
(g9
g2
Ntp289
Rp290
(dp291
g13
I01
sg14
F0.07684533214267941
sg15
g288
sbs(I-73
I628
tp292
g0
(g9
g2
Ntp293
Rp294
(dp295
g13
I01
sg14
F1.374022972679098
sg15
g292
sbs(I-7
I0
tp296
g0
(g9
g2
Ntp297
Rp298
(dp299
g13
I01
sg14
F0.9163390599896616
sg15
g296
sbs(I-35
I2
tp300
g0
(g9
g2
Ntp301
Rp302
(dp303
g13
I01
sg14
F-0.009188044311908852
sg15
g300
sbs(I-54
I1
tp304
g0
(g9
g2
Ntp305
Rp306
(dp307
g13
I01
sg14
F-0.8576884870036737
sg15
g304
sbs(I-97
I628
tp308
g0
(g9
g2
Ntp309
Rp310
(dp311
g13
I01
sg14
F-1.9421811261264854
sg15
g308
sbs(I-33
I3
tp312
g0
(g9
g2
Ntp313
Rp314
(dp315
g13
I01
sg14
F1.231906458581746
sg15
g312
sbs(I-44
I0
tp316
g0
(g9
g2
Ntp317
Rp318
(dp319
g13
I01
sg14
F-1.4301260526447297
sg15
g316
sbs(I-28
I1
tp320
g0
(g9
g2
Ntp321
Rp322
(dp323
g13
I01
sg14
F0.5363984042613045
sg15
g320
sbs(I-8
I628
tp324
g0
(g9
g2
Ntp325
Rp326
(dp327
g13
I01
sg14
F-0.26839249015482813
sg15
g324
sbs(I-10
I628
tp328
g0
(g9
g2
Ntp329
Rp330
(dp331
g13
I01
sg14
F0.6478743856066488
sg15
g328
sbs(I-1
I1
tp332
g0
(g9
g2
Ntp333
Rp334
(dp335
g13
I01
sg14
F-0.3583581228863439
sg15
g332
sbs(I-20
I628
tp336
g0
(g9
g2
Ntp337
Rp338
(dp339
g13
I01
sg14
F1.135531421366237
sg15
g336
sbs(I-93
I0
tp340
g0
(g9
g2
Ntp341
Rp342
(dp343
g13
I00
sg14
F0.021945657423052323
sg15
g340
sbs(I-88
I0
tp344
g0
(g9
g2
Ntp345
Rp346
(dp347
g13
I01
sg14
F2.8476940493927607
sg15
g344
sbs(I628
I1
tp348
g0
(g9
g2
Ntp349
Rp350
(dp351
g13
I01
sg14
F0.016169782797620352
sg15
g348
sbs(I-43
I3
tp352
g0
(g9
g2
Ntp353
Rp354
(dp355
g13
I01
sg14
F-1.0171573566276382
sg15
g352
sbs(I-90
I2
tp356
g0
(g9
g2
Ntp357
Rp358
(dp359
g13
I01
sg14
F-1.260056348787116
sg15
g356
sbs(I-41
I0
tp360
g0
(g9
g2
Ntp361
Rp362
(dp363
g13
I01
sg14
F-1.8150402825570584
sg15
g360
sbs(I-8
I2
tp364
g0
(g9
g2
Ntp365
Rp366
(dp367
g13
I01
sg14
F-1.8699899719546993
sg15
g364
sbs(I-36
I0
tp368
g0
(g9
g2
Ntp369
Rp370
(dp371
g13
I01
sg14
F0.5323755564632384
sg15
g368
sbs(I-59
I2
tp372
g0
(g9
g2
Ntp373
Rp374
(dp375
g13
I01
sg14
F1.3802325430024176
sg15
g372
sbs(I-78
I1
tp376
g0
(g9
g2
Ntp377
Rp378
(dp379
g13
I01
sg14
F0.7409311022877535
sg15
g376
sbs(I-42
I628
tp380
g0
(g9
g2
Ntp381
Rp382
(dp383
g13
I01
sg14
F0.3879661301372083
sg15
g380
sbs(I-52
I628
tp384
g0
(g9
g2
Ntp385
Rp386
(dp387
g13
I01
sg14
F0.05167227710630751
sg15
g384
sbs(I-25
I628
tp388
g0
(g9
g2
Ntp389
Rp390
(dp391
g13
I01
sg14
F-0.3389702582873458
sg15
g388
sbs(I-1
I2
tp392
g0
(g9
g2
Ntp393
Rp394
(dp395
g13
I01
sg14
F1.1979004033267602
sg15
g392
sbs(I-73
I2
tp396
g0
(g9
g2
Ntp397
Rp398
(dp399
g13
I00
sg14
F-1.0008185877843554
sg15
g396
sbs(I-49
I1
tp400
g0
(g9
g2
Ntp401
Rp402
(dp403
g13
I01
sg14
F0.6558173009993696
sg15
g400
sbs(I-16
I1
tp404
g0
(g9
g2
Ntp405
Rp406
(dp407
g13
I01
sg14
F-2.5228912533449783
sg15
g404
sbs(I-68
I2
tp408
g0
(g9
g2
Ntp409
Rp410
(dp411
g13
I01
sg14
F0.46315669455144354
sg15
g408
sbs(I-59
I628
tp412
g0
(g9
g2
Ntp413
Rp414
(dp415
g13
I01
sg14
F0.7893127339263892
sg15
g412
sbs(I-48
I628
tp416
g0
(g9
g2
Ntp417
Rp418
(dp419
g13
I01
sg14
F-0.09133796057361976
sg15
g416
sbs(I-13
I1
tp420
g0
(g9
g2
Ntp421
Rp422
(dp423
g13
I01
sg14
F0.9571458390447269
sg15
g420
sbs(I-65
I0
tp424
g0
(g9
g2
Ntp425
Rp426
(dp427
g13
I01
sg14
F0.9631423827921178
sg15
g424
sbs(I-84
I3
tp428
g0
(g9
g2
Ntp429
Rp430
(dp431
g13
I01
sg14
F1.514306662495985
sg15
g428
sbs(I-60
I0
tp432
g0
(g9
g2
Ntp433
Rp434
(dp435
g13
I01
sg14
F-1.5569746400479103
sg15
g432
sbs(I-82
I2
tp436
g0
(g9
g2
Ntp437
Rp438
(dp439
g13
I01
sg14
F0.48118952778864005
sg15
g436
sbs(I-34
I0
tp440
g0
(g9
g2
Ntp441
Rp442
(dp443
g13
I01
sg14
F-0.7329005311060162
sg15
g440
sbs(I-29
I0
tp444
g0
(g9
g2
Ntp445
Rp446
(dp447
g13
I01
sg14
F-0.07555253938423523
sg15
g444
sbs(I-98
I628
tp448
g0
(g9
g2
Ntp449
Rp450
(dp451
g13
I01
sg14
F-0.4389857893931281
sg15
g448
sbs(I-67
I628
tp452
g0
(g9
g2
Ntp453
Rp454
(dp455
g13
I01
sg14
F-1.7894366184518342
sg15
g452
sbs(I-24
I0
tp456
g0
(g9
g2
Ntp457
Rp458
(dp459
g13
I01
sg14
F-1.7147655303269753
sg15
g456
sbs(I-3
I0
tp460
g0
(g9
g2
Ntp461
Rp462
(dp463
g13
I01
sg14
F0.1546798424355197
sg15
g460
sbs(I-91
I628
tp464
g0
(g9
g2
Ntp465
Rp466
(dp467
g13
I01
sg14
F-0.8562356306201055
sg15
g464
sbs(I-26
I2
tp468
g0
(g9
g2
Ntp469
Rp470
(dp471
g13
I01
sg14
F0.4360277391083919
sg15
g468
sbs(I-25
I2
tp472
g0
(g9
g2
Ntp473
Rp474
(dp475
g13
I01
sg14
F-1.6499968458810768
sg15
g472
sbs(I-97
I2
tp476
g0
(g9
g2
Ntp477
Rp478
(dp479
g13
I01
sg14
F-0.034980135372741694
sg15
g476
sbs(I-80
I628
tp480
g0
(g9
g2
Ntp481
Rp482
(dp483
g13
I01
sg14
F-0.8788336361270396
sg15
g480
sbs(I-45
I628
tp484
g0
(g9
g2
Ntp485
Rp486
(dp487
g13
I01
sg14
F-0.15042686877281042
sg15
g484
sbs(I-47
I0
tp488
g0
(g9
g2
Ntp489
Rp490
(dp491
g13
I01
sg14
F-0.16212773871299369
sg15
g488
sbs(I-14
I1
tp492
g0
(g9
g2
Ntp493
Rp494
(dp495
g13
I01
sg14
F2.3901106183242966
sg15
g492
sbs(I-57
I628
tp496
g0
(g9
g2
Ntp497
Rp498
(dp499
g13
I01
sg14
F0.3555913606632364
sg15
g496
sbs(I-37
I1
tp500
g0
(g9
g2
Ntp501
Rp502
(dp503
g13
I01
sg14
F-2.259765808652895
sg15
g500
sbs(I-56
I2
tp504
g0
(g9
g2
Ntp505
Rp506
(dp507
g13
I01
sg14
F-1.8176996881954597
sg15
g504
sbs(I-84
I0
tp508
g0
(g9
g2
Ntp509
Rp510
(dp511
g13
I01
sg14
F1.4499967604331911
sg15
g508
sbs(I-12
I1
tp512
g0
(g9
g2
Ntp513
Rp514
(dp515
g13
I01
sg14
F-0.2739120281578019
sg15
g512
sbs(I-79
I0
tp516
g0
(g9
g2
Ntp517
Rp518
(dp519
g13
I01
sg14
F-0.06642055836539384
sg15
g516
sbs(I-9
I2
tp520
g0
(g9
g2
Ntp521
Rp522
(dp523
g13
I01
sg14
F-0.021202718596201264
sg15
g520
sbs(I-53
I0
tp524
g0
(g9
g2
Ntp525
Rp526
(dp527
g13
I01
sg14
F-0.2779547917523313
sg15
g524
sbs(I-4
I2
tp528
g0
(g9
g2
Ntp529
Rp530
(dp531
g13
I01
sg14
F0.719283098678139
sg15
g528
sbs(I-48
I0
tp532
g0
(g9
g2
Ntp533
Rp534
(dp535
g13
I01
sg14
F0.2717224807993411
sg15
g532
sbs(I-100
I1
tp536
g0
(g9
g2
Ntp537
Rp538
(dp539
g13
I01
sg14
F0.560419372177121
sg15
g536
sbs(I-27
I0
tp540
g0
(g9
g2
Ntp541
Rp542
(dp543
g13
I01
sg14
F0.32071193113736735
sg15
g540
sbs(I-3
I3
tp544
g0
(g9
g2
Ntp545
Rp546
(dp547
g13
I01
sg14
F-0.31603412621541754
sg15
g544
sbs(I-71
I2
tp548
g0
(g9
g2
Ntp549
Rp550
(dp551
g13
I01
sg14
F2.209447875415901
sg15
g548
sbs(I-50
I2
tp552
g0
(g9
g2
Ntp553
Rp554
(dp555
g13
I01
sg14
F0.30425566605123666
sg15
g552
sbs(I-95
I628
tp556
g0
(g9
g2
Ntp557
Rp558
(dp559
g13
I01
sg14
F0.03669454149635344
sg15
g556
sbs(I-29
I3
tp560
g0
(g9
g2
Ntp561
Rp562
(dp563
g13
I01
sg14
F-0.1049921061893605
sg15
g560
sbs(I-20
I3
tp564
g0
(g9
g2
Ntp565
Rp566
(dp567
g13
I01
sg14
F0.24478400786158033
sg15
g564
sbs(I-70
I628
tp568
g0
(g9
g2
Ntp569
Rp570
(dp571
g13
I01
sg14
F-0.26210150744757976
sg15
g568
sbs(I-38
I1
tp572
g0
(g9
g2
Ntp573
Rp574
(dp575
g13
I01
sg14
F0.5679228281494009
sg15
g572
sbs(I-14
I2
tp576
g0
(g9
g2
Ntp577
Rp578
(dp579
g13
I01
sg14
F-2.0263272015170566
sg15
g576
sbs(I-13
I628
tp580
g0
(g9
g2
Ntp581
Rp582
(dp583
g13
I01
sg14
F-2.2922389413301874
sg15
g580
sbs(I-85
I2
tp584
g0
(g9
g2
Ntp585
Rp586
(dp587
g13
I01
sg14
F0.3718146214811068
sg15
g584
sbs(I-96
I628
tp588
g0
(g9
g2
Ntp589
Rp590
(dp591
g13
I01
sg14
F-0.6406128764783442
sg15
g588
sbs(I-2
I0
tp592
g0
(g9
g2
Ntp593
Rp594
(dp595
g13
I01
sg14
F-2.668291955733539
sg15
g592
sbs(I-32
I2
tp596
g0
(g9
g2
Ntp597
Rp598
(dp599
g13
I01
sg14
F0.5486578698700512
sg15
g596
sbs(I-35
I1
tp600
g0
(g9
g2
Ntp601
Rp602
(dp603
g13
I01
sg14
F-3.1447269383075005
sg15
g600
sbs(I-79
I3
tp604
g0
(g9
g2
Ntp605
Rp606
(dp607
g13
I01
sg14
F1.2741202658849773
sg15
g604
sbs(I-30
I3
tp608
g0
(g9
g2
Ntp609
Rp610
(dp611
g13
I01
sg14
F0.18586437546067278
sg15
g608
sbs(I-82
I0
tp612
g0
(g9
g2
Ntp613
Rp614
(dp615
g13
I01
sg14
F-0.2404647201726095
sg15
g612
sbs(I-33
I2
tp616
g0
(g9
g2
Ntp617
Rp618
(dp619
g13
I01
sg14
F-0.9826907503686275
sg15
g616
sbs(I-76
I2
tp620
g0
(g9
g2
Ntp621
Rp622
(dp623
g13
I01
sg14
F-0.05100708639752557
sg15
g620
sbs(I-28
I2
tp624
g0
(g9
g2
Ntp625
Rp626
(dp627
g13
I01
sg14
F0.5037140578583325
sg15
g624
sbs(I-57
I3
tp628
g0
(g9
g2
Ntp629
Rp630
(dp631
g13
I01
sg14
F1.2838293772205085
sg15
g628
sbs(I-72
I0
tp632
g0
(g9
g2
Ntp633
Rp634
(dp635
g13
I01
sg14
F0.08626297327093828
sg15
g632
sbs(I-7
I2
tp636
g0
(g9
g2
Ntp637
Rp638
(dp639
g13
I01
sg14
F-0.5166008607864991
sg15
g636
sbs(I-99
I628
tp640
g0
(g9
g2
Ntp641
Rp642
(dp643
g13
I01
sg14
F-0.5405548376218563
sg15
g640
sbs(I-74
I2
tp644
g0
(g9
g2
Ntp645
Rp646
(dp647
g13
I01
sg14
F-1.0113061685914675
sg15
g644
sbs(I-25
I0
tp648
g0
(g9
g2
Ntp649
Rp650
(dp651
g13
I01
sg14
F-0.44621600095366953
sg15
g648
sbs(I-93
I3
tp652
g0
(g9
g2
Ntp653
Rp654
(dp655
g13
I01
sg14
F-1.0714342694388874
sg15
g652
sbs(I-44
I3
tp656
g0
(g9
g2
Ntp657
Rp658
(dp659
g13
I01
sg14
F-0.44278662804164115
sg15
g656
sbs(I-20
I0
tp660
g0
(g9
g2
Ntp661
Rp662
(dp663
g13
I01
sg14
F-1.0524170840387295
sg15
g660
sbs(I-88
I1
tp664
g0
(g9
g2
Ntp665
Rp666
(dp667
g13
I01
sg14
F0.44693081221075015
sg15
g664
sbs(I-14
I3
tp668
g0
(g9
g2
Ntp669
Rp670
(dp671
g13
I01
sg14
F1.322867957926708
sg15
g668
sbs(I-38
I2
tp672
g0
(g9
g2
Ntp673
Rp674
(dp675
g13
I01
sg14
F-0.024535467569767863
sg15
g672
sbs(I-41
I3
tp676
g0
(g9
g2
Ntp677
Rp678
(dp679
g13
I01
sg14
F-2.0702365270235306
sg15
g676
sbs(I-8
I3
tp680
g0
(g9
g2
Ntp681
Rp682
(dp683
g13
I01
sg14
F0.33935396023552855
sg15
g680
sbs(I-36
I3
tp684
g0
(g9
g2
Ntp685
Rp686
(dp687
g13
I01
sg14
F-0.3992039343799362
sg15
g684
sbs(I-39
I628
tp688
g0
(g9
g2
Ntp689
Rp690
(dp691
g13
I01
sg14
F0.3058160302178699
sg15
g688
sbs(I-33
I628
tp692
g0
(g9
g2
Ntp693
Rp694
(dp695
g13
I01
sg14
F-0.20643659780465318
sg15
g692
sbs(I-10
I1
tp696
g0
(g9
g2
Ntp697
Rp698
(dp699
g13
I01
sg14
F-0.9530706091734147
sg15
g696
sbs(I-54
I3
tp700
g0
(g9
g2
Ntp701
Rp702
(dp703
g13
I01
sg14
F3.1701312443650647
sg15
g700
sbs(I-5
I3
tp704
g0
(g9
g2
Ntp705
Rp706
(dp707
g13
I01
sg14
F-2.2622466682090456
sg15
g704
sbs(I-33
I1
tp708
g0
(g9
g2
Ntp709
Rp710
(dp711
g13
I01
sg14
F-0.4497648541849671
sg15
g708
sbs(I-52
I2
tp712
g0
(g9
g2
Ntp713
Rp714
(dp715
g13
I01
sg14
F0.895259040045526
sg15
g712
sbs(I-47
I3
tp716
g0
(g9
g2
Ntp717
Rp718
(dp719
g13
I01
sg14
F1.2099209864143854
sg15
g716
sbs(I-18
I2
tp720
g0
(g9
g2
Ntp721
Rp722
(dp723
g13
I01
sg14
F-0.13924494271309978
sg15
g720
sbs(I-5
I628
tp724
g0
(g9
g2
Ntp725
Rp726
(dp727
g13
I01
sg14
F-0.5600107809680684
sg15
g724
sbs(I-95
I3
tp728
g0
(g9
g2
Ntp729
Rp730
(dp731
g13
I01
sg14
F-0.8437961371482291
sg15
g728
sbs(I-51
I3
tp732
g0
(g9
g2
Ntp733
Rp734
(dp735
g13
I01
sg14
F-0.9961768849928833
sg15
g732
sbs(I-21
I2
tp736
g0
(g9
g2
Ntp737
Rp738
(dp739
g13
I01
sg14
F0.6154811428129201
sg15
g736
sbs(I-98
I2
tp740
g0
(g9
g2
Ntp741
Rp742
(dp743
g13
I01
sg14
F-0.09571210361434043
sg15
g740
sbs(I-16
I2
tp744
g0
(g9
g2
Ntp745
Rp746
(dp747
g13
I01
sg14
F-0.24949766460988557
sg15
g744
sbs(I-58
I2
tp748
g0
(g9
g2
Ntp749
Rp750
(dp751
g13
I01
sg14
F-0.6082897470284079
sg15
g748
sbs(I-78
I628
tp752
g0
(g9
g2
Ntp753
Rp754
(dp755
g13
I01
sg14
F-0.31407865503097127
sg15
g752
sbs(I-15
I3
tp756
g0
(g9
g2
Ntp757
Rp758
(dp759
g13
I01
sg14
F0.23961590299566699
sg15
g756
sbs(I-51
I0
tp760
g0
(g9
g2
Ntp761
Rp762
(dp763
g13
I01
sg14
F0.06816807897759142
sg15
g760
sbs(I-71
I628
tp764
g0
(g9
g2
Ntp765
Rp766
(dp767
g13
I01
sg14
F-0.4926747059865563
sg15
g764
sbs(I-81
I3
tp768
g0
(g9
g2
Ntp769
Rp770
(dp771
g13
I01
sg14
F-1.5879983730405196
sg15
g768
sbs(I-13
I0
tp772
g0
(g9
g2
Ntp773
Rp774
(dp775
g13
I01
sg14
F1.4556321223483417
sg15
g772
sbs(I-83
I628
tp776
g0
(g9
g2
Ntp777
Rp778
(dp779
g13
I01
sg14
F-0.24915114268940367
sg15
g776
sbs(I-60
I1
tp780
g0
(g9
g2
Ntp781
Rp782
(dp783
g13
I01
sg14
F0.929355092711684
sg15
g780
sbs(I-34
I1
tp784
g0
(g9
g2
Ntp785
Rp786
(dp787
g13
I01
sg14
F-0.07475440488245583
sg15
g784
sbs(I-10
I2
tp788
g0
(g9
g2
Ntp789
Rp790
(dp791
g13
I01
sg14
F-2.0597440987820783
sg15
g788
sbs(I-81
I2
tp792
g0
(g9
g2
Ntp793
Rp794
(dp795
g13
I01
sg14
F-1.1129206857801703
sg15
g792
sbs(I-57
I1
tp796
g0
(g9
g2
Ntp797
Rp798
(dp799
g13
I01
sg14
F-3.5251741386437736
sg15
g796
sbs(I-24
I1
tp800
g0
(g9
g2
Ntp801
Rp802
(dp803
g13
I01
sg14
F1.2250471154111102
sg15
g800
sbs(I-1
I628
tp804
g0
(g9
g2
Ntp805
Rp806
(dp807
g13
I01
sg14
F1.1393536932484043
sg15
g804
sbs(I-61
I628
tp808
g0
(g9
g2
Ntp809
Rp810
(dp811
g13
I01
sg14
F1.5139919776892186
sg15
g808
sbs(I-30
I628
tp812
g0
(g9
g2
Ntp813
Rp814
(dp815
g13
I01
sg14
F0.06811596406759568
sg15
g812
sbs(I-75
I3
tp816
g0
(g9
g2
Ntp817
Rp818
(dp819
g13
I01
sg14
F2.745656688495016
sg15
g816
sbs(I-26
I3
tp820
g0
(g9
g2
Ntp821
Rp822
(dp823
g13
I01
sg14
F0.49491002462380673
sg15
g820
sbs(I-94
I0
tp824
g0
(g9
g2
Ntp825
Rp826
(dp827
g13
I01
sg14
F0.8955412735925316
sg15
g824
sbs(I-92
I3
tp828
g0
(g9
g2
Ntp829
Rp830
(dp831
g13
I01
sg14
F1.6414968634835605
sg15
g828
sbs(I-94
I628
tp832
g0
(g9
g2
Ntp833
Rp834
(dp835
g13
I01
sg14
F-0.6372238170202627
sg15
g832
sbs(I-91
I2
tp836
g0
(g9
g2
Ntp837
Rp838
(dp839
g13
I01
sg14
F-0.5075926781950173
sg15
g836
sbs(I-86
I2
tp840
g0
(g9
g2
Ntp841
Rp842
(dp843
g13
I01
sg14
F-1.4016723501437163
sg15
g840
sbs(I-56
I3
tp844
g0
(g9
g2
Ntp845
Rp846
(dp847
g13
I01
sg14
F-1.9999605711072717
sg15
g844
sbs(I-100
I628
tp848
g0
(g9
g2
Ntp849
Rp850
(dp851
g13
I01
sg14
F0.06765666460754025
sg15
g848
sbs(I-69
I628
tp852
g0
(g9
g2
Ntp853
Rp854
(dp855
g13
I01
sg14
F-0.032512219524667874
sg15
g852
sbs(I-55
I2
tp856
g0
(g9
g2
Ntp857
Rp858
(dp859
g13
I01
sg14
F-1.8587571424964224
sg15
g856
sbs(I-58
I1
tp860
g0
(g9
g2
Ntp861
Rp862
(dp863
g13
I01
sg14
F-0.8468196688085464
sg15
g860
sbs(I-44
I628
tp864
g0
(g9
g2
Ntp865
Rp866
(dp867
g13
I01
sg14
F-0.6531603855214172
sg15
g864
sbs(I-93
I628
tp868
g0
(g9
g2
Ntp869
Rp870
(dp871
g13
I01
sg14
F1.490855368380532
sg15
g868
sbs(I-62
I628
tp872
g0
(g9
g2
Ntp873
Rp874
(dp875
g13
I01
sg14
F2.1607073469764284
sg15
g872
sbs(I-96
I2
tp876
g0
(g9
g2
Ntp877
Rp878
(dp879
g13
I01
sg14
F-0.14397576269501022
sg15
g876
sbs(I-27
I628
tp880
g0
(g9
g2
Ntp881
Rp882
(dp883
g13
I01
sg14
F-0.7334671921138847
sg15
g880
sbs(I-86
I628
tp884
g0
(g9
g2
Ntp885
Rp886
(dp887
g13
I01
sg14
F-2.249017649966906
sg15
g884
sbs(I-99
I3
tp888
g0
(g9
g2
Ntp889
Rp890
(dp891
g13
I01
sg14
F-0.8899466423455793
sg15
g888
sbs(I-50
I3
tp892
g0
(g9
g2
Ntp893
Rp894
(dp895
g13
I01
sg14
F-0.8177840790502715
sg15
g892
sbs(I-50
I1
tp896
g0
(g9
g2
Ntp897
Rp898
(dp899
g13
I01
sg14
F1.5841417420835109
sg15
g896
sbs(I-45
I1
tp900
g0
(g9
g2
Ntp901
Rp902
(dp903
g13
I01
sg14
F-0.951251050178735
sg15
g900
sbs(I-97
I0
tp904
g0
(g9
g2
Ntp905
Rp906
(dp907
g13
I01
sg14
F-0.03773889808775169
sg15
g904
sbs(I-92
I0
tp908
g0
(g9
g2
Ntp909
Rp910
(dp911
g13
I01
sg14
F0.24310791619400834
sg15
g908
sbs(I-87
I0
tp912
g0
(g9
g2
Ntp913
Rp914
(dp915
g13
I01
sg14
F-0.20110807583521906
sg15
g912
sbs(I-57
I2
tp916
g0
(g9
g2
Ntp917
Rp918
(dp919
g13
I01
sg14
F1.2633073834353954
sg15
g916
sbs(I-66
I0
tp920
g0
(g9
g2
Ntp921
Rp922
(dp923
g13
I01
sg14
F0.7503141160335783
sg15
g920
sbs(I-23
I628
tp924
g0
(g9
g2
Ntp925
Rp926
(dp927
g13
I01
sg14
F-0.5550975998970537
sg15
g924
sbs(I-12
I2
tp928
g0
(g9
g2
Ntp929
Rp930
(dp931
g13
I01
sg14
F1.808890639579133
sg15
g928
sbs(I-80
I3
tp932
g0
(g9
g2
Ntp933
Rp934
(dp935
g13
I01
sg14
F-0.6530670155391174
sg15
g932
sbs(I-73
I1
tp936
g0
(g9
g2
Ntp937
Rp938
(dp939
g13
I01
sg14
F-0.5561226392965081
sg15
g936
sbs(I-2
I1
tp940
g0
(g9
g2
Ntp941
Rp942
(dp943
g13
I01
sg14
F-1.0353733174857283
sg15
g940
sbs(I-35
I0
tp944
g0
(g9
g2
Ntp945
Rp946
(dp947
g13
I01
sg14
F-0.3375758882280317
sg15
g944
sbs(I-25
I3
tp948
g0
(g9
g2
Ntp949
Rp950
(dp951
g13
I01
sg14
F-0.2885102117061613
sg15
g948
sbs(I-9
I0
tp952
g0
(g9
g2
Ntp953
Rp954
(dp955
g13
I01
sg14
F0.9896787536600051
sg15
g952
sbs(I-77
I3
tp956
g0
(g9
g2
Ntp957
Rp958
(dp959
g13
I01
sg14
F-2.494372558574053
sg15
g956
sbs(I-23
I3
tp960
g0
(g9
g2
Ntp961
Rp962
(dp963
g13
I01
sg14
F1.429743235720236
sg15
g960
sbs(I-32
I628
tp964
g0
(g9
g2
Ntp965
Rp966
(dp967
g13
I01
sg14
F-1.6979101302181592
sg15
g964
sbs(I-56
I628
tp968
g0
(g9
g2
Ntp969
Rp970
(dp971
g13
I01
sg14
F1.2821805176247383
sg15
g968
sbs(I-46
I1
tp972
g0
(g9
g2
Ntp973
Rp974
(dp975
g13
I01
sg14
F1.5116856771956462
sg15
g972
sbs(I-74
I3
tp976
g0
(g9
g2
Ntp977
Rp978
(dp979
g13
I01
sg14
F-0.4950751457594261
sg15
g976
sbs(I-74
I628
tp980
g0
(g9
g2
Ntp981
Rp982
(dp983
g13
I01
sg14
F-0.35057141362886896
sg15
g980
sbs(I-84
I628
tp984
g0
(g9
g2
Ntp985
Rp986
(dp987
g13
I01
sg14
F0.4673624690525532
sg15
g984
sbs(I-6
I628
tp988
g0
(g9
g2
Ntp989
Rp990
(dp991
g13
I01
sg14
F-0.9943964808607595
sg15
g988
sbs(I-58
I628
tp992
g0
(g9
g2
Ntp993
Rp994
(dp995
g13
I01
sg14
F-1.1901915759435904
sg15
g992
sbs(I-87
I3
tp996
g0
(g9
g2
Ntp997
Rp998
(dp999
g13
I01
sg14
F1.7945664394249805
sg15
g996
sbs(I-38
I3
tp1000
g0
(g9
g2
Ntp1001
Rp1002
(dp1003
g13
I01
sg14
F-0.9668677896174046
sg15
g1000
sbs(I-41
I2
tp1004
g0
(g9
g2
Ntp1005
Rp1006
(dp1007
g13
I01
sg14
F-0.7466647520767741
sg15
g1004
sbs(I-63
I1
tp1008
g0
(g9
g2
Ntp1009
Rp1010
(dp1011
g13
I01
sg14
F-1.5266367628603852
sg15
g1008
sbs(I-36
I2
tp1012
g0
(g9
g2
Ntp1013
Rp1014
(dp1015
g13
I01
sg14
F-2.1711014273963767
sg15
g1012
sbs(I-80
I0
tp1016
g0
(g9
g2
Ntp1017
Rp1018
(dp1019
g13
I01
sg14
F-2.66900511272335
sg15
g1016
sbs(I-21
I628
tp1020
g0
(g9
g2
Ntp1021
Rp1022
(dp1023
g13
I01
sg14
F-0.8179923707745429
sg15
g1020
sbs(I-59
I0
tp1024
g0
(g9
g2
Ntp1025
Rp1026
(dp1027
g13
I01
sg14
F1.3909952070046372
sg15
g1024
sbs(I-54
I0
tp1028
g0
(g9
g2
Ntp1029
Rp1030
(dp1031
g13
I01
sg14
F-0.7623859520713583
sg15
g1028
sbs(I-82
I3
tp1032
g0
(g9
g2
Ntp1033
Rp1034
(dp1035
g13
I01
sg14
F-1.734412843265822
sg15
g1032
sbs(I-52
I3
tp1036
g0
(g9
g2
Ntp1037
Rp1038
(dp1039
g13
I01
sg14
F-0.12480459715702254
sg15
g1036
sbssS'nodes'
p1040
(dp1041
I0
g0
(cneat.genes
DefaultNodeGene
p1042
g2
Ntp1043
Rp1044
(dp1045
S'activation'
p1046
S'sigmoid'
p1047
sS'bias'
p1048
F-1.3590686025876524
sS'response'
p1049
F1.0
sg15
I0
sS'aggregation'
p1050
S'sum'
p1051
sbsI1
g0
(g1042
g2
Ntp1052
Rp1053
(dp1054
g1046
g1047
sg1048
F-2.609223202294561
sg1049
F1.0
sg15
I1
sg1050
g1051
sbsI2
g0
(g1042
g2
Ntp1055
Rp1056
(dp1057
g1046
g1047
sg1048
F-1.9880565593099822
sg1049
F1.0
sg15
I2
sg1050
g1051
sbsI3
g0
(g1042
g2
Ntp1058
Rp1059
(dp1060
g1046
g1047
sg1048
F0.5689338036561224
sg1049
F1.0
sg15
I3
sg1050
g1051
sbsI628
g0
(g1042
g2
Ntp1061
Rp1062
(dp1063
g1046
g1047
sg1048
F-0.28532006485149247
sg1049
F1.0
sg15
I628
sg1050
g1051
sbssg15
I1964
sS'fitness'
p1064
I33
sb.