(lp0
ccopy_reg
_reconstructor
p1
(cneat.genome
DefaultGenome
p2
c__builtin__
object
p3
Ntp4
Rp5
(dp6
S'connections'
p7
(dp8
(I-2
I0
tp9
g1
(cneat.genes
DefaultConnectionGene
p10
g3
Ntp11
Rp12
(dp13
S'enabled'
p14
I01
sS'weight'
p15
F0.4904244176297976
sS'key'
p16
g9
sbs(I-46
I2
tp17
g1
(g10
g3
Ntp18
Rp19
(dp20
g14
I01
sg15
F0.2968982328139568
sg16
g17
sbs(I-16
I3
tp21
g1
(g10
g3
Ntp22
Rp23
(dp24
g14
I01
sg15
F0.4461592655087391
sg16
g21
sbs(I-29
I2
tp25
g1
(g10
g3
Ntp26
Rp27
(dp28
g14
I01
sg15
F2.83518236360352
sg16
g25
sbs(I-24
I2
tp29
g1
(g10
g3
Ntp30
Rp31
(dp32
g14
I01
sg15
F4.224194835378225
sg16
g29
sbs(I-26
I0
tp33
g1
(g10
g3
Ntp34
Rp35
(dp36
g14
I01
sg15
F9.25044242026816
sg16
g33
sbs(I-21
I0
tp37
g1
(g10
g3
Ntp38
Rp39
(dp40
g14
I01
sg15
F0.15449346968503397
sg16
g37
sbs(I-40
I3
tp41
g1
(g10
g3
Ntp42
Rp43
(dp44
g14
I01
sg15
F-0.45657887463465696
sg16
g41
sbs(I-42
I1
tp45
g1
(g10
g3
Ntp46
Rp47
(dp48
g14
I00
sg15
F-0.08581064841603903
sg16
g45
sbs(I-37
I3
tp49
g1
(g10
g3
Ntp50
Rp51
(dp52
g14
I00
sg15
F-2.144854182446077
sg16
g49
sbs(I-3
I1
tp53
g1
(g10
g3
Ntp54
Rp55
(dp56
g14
I01
sg15
F-1.2659542912769248
sg16
g53
sbs(I-40
I0
tp57
g1
(g10
g3
Ntp58
Rp59
(dp60
g14
I00
sg15
F1.7744855999683593
sg16
g57
sbs(I-19
I0
tp61
g1
(g10
g3
Ntp62
Rp63
(dp64
g14
I01
sg15
F0.37338506481921846
sg16
g61
sbs(I-1
I3
tp65
g1
(g10
g3
Ntp66
Rp67
(dp68
g14
I01
sg15
F0.35556146279958223
sg16
g65
sbs(I-4
I1
tp69
g1
(g10
g3
Ntp70
Rp71
(dp72
g14
I01
sg15
F1.3865988130222298
sg16
g69
sbs(I-22
I3
tp73
g1
(g10
g3
Ntp74
Rp75
(dp76
g14
I01
sg15
F-0.003820568336526553
sg16
g73
sbs(I-25
I2
tp77
g1
(g10
g3
Ntp78
Rp79
(dp80
g14
I01
sg15
F-5.763445450650943
sg16
g77
sbs(I-43
I0
tp81
g1
(g10
g3
Ntp82
Rp83
(dp84
g14
I01
sg15
F0.367722670457745
sg16
g81
sbs(I-36
I3
tp85
g1
(g10
g3
Ntp86
Rp87
(dp88
g14
I01
sg15
F1.4654684317595528
sg16
g85
sbs(I-12
I0
tp89
g1
(g10
g3
Ntp90
Rp91
(dp92
g14
I01
sg15
F-4.722348248374283
sg16
g89
sbs(I-7
I0
tp93
g1
(g10
g3
Ntp94
Rp95
(dp96
g14
I00
sg15
F-1.6518201084350628
sg16
g93
sbs(I-33
I3
tp97
g1
(g10
g3
Ntp98
Rp99
(dp100
g14
I00
sg15
F-1.0181417443378884
sg16
g97
sbs(I-2
I1
tp101
g1
(g10
g3
Ntp102
Rp103
(dp104
g14
I01
sg15
F0.6247718971678394
sg16
g101
sbs(I-49
I2
tp105
g1
(g10
g3
Ntp106
Rp107
(dp108
g14
I01
sg15
F2.54009937531214
sg16
g105
sbs(I-9
I3
tp109
g1
(g10
g3
Ntp110
Rp111
(dp112
g14
I01
sg15
F0.3852103862120133
sg16
g109
sbs(I-15
I1
tp113
g1
(g10
g3
Ntp114
Rp115
(dp116
g14
I01
sg15
F0.7055532050057256
sg16
g113
sbs(I-8
I2
tp117
g1
(g10
g3
Ntp118
Rp119
(dp120
g14
I00
sg15
F-0.7612291349031177
sg16
g117
sbs(I-36
I0
tp121
g1
(g10
g3
Ntp122
Rp123
(dp124
g14
I01
sg15
F-1.4114272329363557
sg16
g121
sbs(I-7
I3
tp125
g1
(g10
g3
Ntp126
Rp127
(dp128
g14
I00
sg15
F0.6768931258332578
sg16
g125
sbs(I-38
I8467
tp129
g1
(g10
g3
Ntp130
Rp131
(dp132
g14
I01
sg15
F-0.7218446622899242
sg16
g129
sbs(I-24
I3
tp133
g1
(g10
g3
Ntp134
Rp135
(dp136
g14
I01
sg15
F-0.025723935249421848
sg16
g133
sbs(I-23
I2
tp137
g1
(g10
g3
Ntp138
Rp139
(dp140
g14
I00
sg15
F0.8157284817268835
sg16
g137
sbs(I-26
I1
tp141
g1
(g10
g3
Ntp142
Rp143
(dp144
g14
I01
sg15
F-0.5783477623321305
sg16
g141
sbs(I-2
I2
tp145
g1
(g10
g3
Ntp146
Rp147
(dp148
g14
I01
sg15
F-0.7406145897268643
sg16
g145
sbs(I-37
I2
tp149
g1
(g10
g3
Ntp150
Rp151
(dp152
g14
I01
sg15
F0.8523563618796001
sg16
g149
sbs(I-3
I0
tp153
g1
(g10
g3
Ntp154
Rp155
(dp156
g14
I00
sg15
F-2.605425588978888
sg16
g153
sbs(I-47
I2
tp157
g1
(g10
g3
Ntp158
Rp159
(dp160
g14
I00
sg15
F-2.4576122309886306
sg16
g157
sbs(I-26
I2
tp161
g1
(g10
g3
Ntp162
Rp163
(dp164
g14
I01
sg15
F-2.1336918464508106
sg16
g161
sbs(I-14
I8467
tp165
g1
(g10
g3
Ntp166
Rp167
(dp168
g14
I01
sg15
F1.4342935354354023
sg16
g165
sbs(I-42
I3
tp169
g1
(g10
g3
Ntp170
Rp171
(dp172
g14
I00
sg15
F4.920636458900193
sg16
g169
sbs(I-6
I3
tp173
g1
(g10
g3
Ntp174
Rp175
(dp176
g14
I00
sg15
F2.112074809424473
sg16
g173
sbs(I-48
I0
tp177
g1
(g10
g3
Ntp178
Rp179
(dp180
g14
I00
sg15
F0.46152931500295635
sg16
g177
sbs(I-27
I0
tp181
g1
(g10
g3
Ntp182
Rp183
(dp184
g14
I01
sg15
F12.38556454852462
sg16
g181
sbs(I-12
I1
tp185
g1
(g10
g3
Ntp186
Rp187
(dp188
g14
I01
sg15
F-4.641268110187416
sg16
g185
sbs(I-30
I3
tp189
g1
(g10
g3
Ntp190
Rp191
(dp192
g14
I01
sg15
F1.2860111616823164
sg16
g189
sbs(I8467
I3
tp193
g1
(g10
g3
Ntp194
Rp195
(dp196
g14
I01
sg15
F-0.06307839507117
sg16
g193
sbs(I-33
I2
tp197
g1
(g10
g3
Ntp198
Rp199
(dp200
g14
I01
sg15
F1.614832481235238
sg16
g197
sbs(I-27
I3
tp201
g1
(g10
g3
Ntp202
Rp203
(dp204
g14
I01
sg15
F-2.589223684022362
sg16
g201
sbs(I-46
I0
tp205
g1
(g10
g3
Ntp206
Rp207
(dp208
g14
I01
sg15
F0.028310516467239286
sg16
g205
sbs(I-44
I3
tp209
g1
(g10
g3
Ntp210
Rp211
(dp212
g14
I00
sg15
F0.45654644102190456
sg16
g209
sbs(I-43
I2
tp213
g1
(g10
g3
Ntp214
Rp215
(dp216
g14
I01
sg15
F0.4873651989069909
sg16
g213
sbs(I-8
I3
tp217
g1
(g10
g3
Ntp218
Rp219
(dp220
g14
I00
sg15
F1.099734834133284
sg16
g217
sbs(I-36
I1
tp221
g1
(g10
g3
Ntp222
Rp223
(dp224
g14
I01
sg15
F-1.6551194042470978
sg16
g221
sbs(I-7
I2
tp225
g1
(g10
g3
Ntp226
Rp227
(dp228
g14
I01
sg15
F-0.2680114736441519
sg16
g225
sbs(I-10
I1
tp229
g1
(g10
g3
Ntp230
Rp231
(dp232
g14
I01
sg15
F2.4962024768667193
sg16
g229
sbs(I-2
I3
tp233
g1
(g10
g3
Ntp234
Rp235
(dp236
g14
I00
sg15
F6.998030657667184
sg16
g233
sbs(I-49
I0
tp237
g1
(g10
g3
Ntp238
Rp239
(dp240
g14
I01
sg15
F-2.651594788523229
sg16
g237
sbs(I-44
I0
tp241
g1
(g10
g3
Ntp242
Rp243
(dp244
g14
I01
sg15
F1.195348284962246
sg16
g241
sbs(I-15
I3
tp245
g1
(g10
g3
Ntp246
Rp247
(dp248
g14
I01
sg15
F0.14020259018468595
sg16
g245
sbs(I-18
I0
tp249
g1
(g10
g3
Ntp250
Rp251
(dp252
g14
I01
sg15
F-0.19852931670904717
sg16
g249
sbs(I-13
I0
tp253
g1
(g10
g3
Ntp254
Rp255
(dp256
g14
I01
sg15
F1.0735923957226063
sg16
g253
sbs(I-34
I1
tp257
g1
(g10
g3
Ntp258
Rp259
(dp260
g14
I01
sg15
F0.038987717421570034
sg16
g257
sbs(I-10
I2
tp261
g1
(g10
g3
Ntp262
Rp263
(dp264
g14
I00
sg15
F-0.7429655060275455
sg16
g261
sbs(I-29
I3
tp265
g1
(g10
g3
Ntp266
Rp267
(dp268
g14
I01
sg15
F-2.5241701011763173
sg16
g265
sbs(I-47
I1
tp269
g1
(g10
g3
Ntp270
Rp271
(dp272
g14
I01
sg15
F1.9463543035963908
sg16
g269
sbs(I-45
I2
tp273
g1
(g10
g3
Ntp274
Rp275
(dp276
g14
I01
sg15
F-0.6113947512319917
sg16
g273
sbs(I-37
I0
tp277
g1
(g10
g3
Ntp278
Rp279
(dp280
g14
I00
sg15
F1.2449997778940014
sg16
g277
sbs(I-6
I0
tp281
g1
(g10
g3
Ntp282
Rp283
(dp284
g14
I01
sg15
F2.18970432662419
sg16
g281
sbs(I-3
I2
tp285
g1
(g10
g3
Ntp286
Rp287
(dp288
g14
I01
sg15
F0.9815096328648201
sg16
g285
sbs(I-12
I2
tp289
g1
(g10
g3
Ntp290
Rp291
(dp292
g14
I00
sg15
F-2.9732557405168265
sg16
g289
sbs(I-9
I0
tp293
g1
(g10
g3
Ntp294
Rp295
(dp296
g14
I01
sg15
F0.6176074459484003
sg16
g293
sbs(I-28
I3
tp297
g1
(g10
g3
Ntp298
Rp299
(dp300
g14
I01
sg15
F-0.1812841351022565
sg16
g297
sbs(I-4
I0
tp301
g1
(g10
g3
Ntp302
Rp303
(dp304
g14
I01
sg15
F-0.9349980767255424
sg16
g301
sbs(I-27
I2
tp305
g1
(g10
g3
Ntp306
Rp307
(dp308
g14
I01
sg15
F-0.1153904802985195
sg16
g305
sbs(I-46
I1
tp309
g1
(g10
g3
Ntp310
Rp311
(dp312
g14
I01
sg15
F-2.1340154661245077
sg16
g309
sbs(I-22
I2
tp313
g1
(g10
g3
Ntp314
Rp315
(dp316
g14
I00
sg15
F-0.7344345390582606
sg16
g313
sbs(I-25
I3
tp317
g1
(g10
g3
Ntp318
Rp319
(dp320
g14
I01
sg15
F3.4834482454361164
sg16
g317
sbs(I-20
I1
tp321
g1
(g10
g3
Ntp322
Rp323
(dp324
g14
I01
sg15
F4.295060907855569
sg16
g321
sbs(I-43
I1
tp325
g1
(g10
g3
Ntp326
Rp327
(dp328
g14
I00
sg15
F-2.1949511924755813
sg16
g325
sbs(I-38
I3
tp329
g1
(g10
g3
Ntp330
Rp331
(dp332
g14
I01
sg15
F-2.257487627956782
sg16
g329
sbs(I-41
I2
tp333
g1
(g10
g3
Ntp334
Rp335
(dp336
g14
I01
sg15
F-2.0651833587660198
sg16
g333
sbs(I-7
I1
tp337
g1
(g10
g3
Ntp338
Rp339
(dp340
g14
I01
sg15
F2.5695236688931296
sg16
g337
sbs(I-5
I2
tp341
g1
(g10
g3
Ntp342
Rp343
(dp344
g14
I00
sg15
F1.397110249101072
sg16
g341
sbs(I8467
I1
tp345
g1
(g10
g3
Ntp346
Rp347
(dp348
g14
I01
sg15
F-0.13186243233262995
sg16
g345
sbssS'nodes'
p349
(dp350
I0
g1
(cneat.genes
DefaultNodeGene
p351
g3
Ntp352
Rp353
(dp354
S'activation'
p355
S'sigmoid'
p356
sS'bias'
p357
F-2.3418936779378656
sS'response'
p358
F1.0
sg16
I0
sS'aggregation'
p359
S'sum'
p360
sbsI1
g1
(g351
g3
Ntp361
Rp362
(dp363
g355
g356
sg357
F-5.318594350770885
sg358
F1.0
sg16
I1
sg359
g360
sbsI2
g1
(g351
g3
Ntp364
Rp365
(dp366
g355
g356
sg357
F0.7872069950000486
sg358
F1.0
sg16
I2
sg359
g360
sbsI3
g1
(g351
g3
Ntp367
Rp368
(dp369
g355
g356
sg357
F7.655144966843218
sg358
F1.0
sg16
I3
sg359
g360
sbsI8467
g1
(g351
g3
Ntp370
Rp371
(dp372
g355
g356
sg357
F3.6782452589675967
sg358
F1.0
sg16
I8467
sg359
g360
sbssg16
I47691
sS'fitness'
p373
I60
sba(lp374
cnumpy.core.multiarray
_reconstruct
p375
(cnumpy
ndarray
p376
(I0
tp377
S'b'
p378
tp379
Rp380
(I1
(I1
tp381
cnumpy
dtype
p382
(S'i8'
p383
I0
I1
tp384
Rp385
(I3
S'<'
p386
NNNI-1
I-1
I0
tp387
bI00
S'F\x00\x00\x00\x00\x00\x00\x00'
p388
tp389
baI25
aI3
aI50
aa.