(lp0
ccopy_reg
_reconstructor
p1
(cneat.genome
DefaultGenome
p2
c__builtin__
object
p3
Ntp4
Rp5
(dp6
S'connections'
p7
(dp8
(I-23
I0
tp9
g1
(cneat.genes
DefaultConnectionGene
p10
g3
Ntp11
Rp12
(dp13
S'enabled'
p14
I01
sS'weight'
p15
F0.39375118584951924
sS'key'
p16
g9
sbs(I-46
I2
tp17
g1
(g10
g3
Ntp18
Rp19
(dp20
g14
I00
sg15
F-1.4883449226296541
sg16
g17
sbs(I-49
I3
tp21
g1
(g10
g3
Ntp22
Rp23
(dp24
g14
I01
sg15
F-1.1175510314239836
sg16
g21
sbs(I-44
I1
tp25
g1
(g10
g3
Ntp26
Rp27
(dp28
g14
I00
sg15
F-0.2803908100339708
sg16
g25
sbs(I-15
I2
tp29
g1
(g10
g3
Ntp30
Rp31
(dp32
g14
I00
sg15
F-0.33047677452737506
sg16
g29
sbs(I-18
I1
tp33
g1
(g10
g3
Ntp34
Rp35
(dp36
g14
I01
sg15
F-2.8932003254055405
sg16
g33
sbs(I-41
I1
tp37
g1
(g10
g3
Ntp38
Rp39
(dp40
g14
I01
sg15
F0.38467987562749956
sg16
g37
sbs(I-8
I1
tp41
g1
(g10
g3
Ntp42
Rp43
(dp44
g14
I01
sg15
F-0.29595865514663156
sg16
g41
sbs(I-31
I1
tp45
g1
(g10
g3
Ntp46
Rp47
(dp48
g14
I01
sg15
F-1.177496790105848
sg16
g45
sbs(I-29
I2
tp49
g1
(g10
g3
Ntp50
Rp51
(dp52
g14
I01
sg15
F-2.6619285534447594
sg16
g49
sbs(I-5
I1
tp53
g1
(g10
g3
Ntp54
Rp55
(dp56
g14
I01
sg15
F-0.8781342716487374
sg16
g53
sbs(I-47
I0
tp57
g1
(g10
g3
Ntp58
Rp59
(dp60
g14
I01
sg15
F-0.526995433363233
sg16
g57
sbs(I-26
I0
tp61
g1
(g10
g3
Ntp62
Rp63
(dp64
g14
I01
sg15
F2.566289192149642
sg16
g61
sbs(I-21
I0
tp65
g1
(g10
g3
Ntp66
Rp67
(dp68
g14
I01
sg15
F-0.009773877687952483
sg16
g65
sbs(I-16
I0
tp69
g1
(g10
g3
Ntp70
Rp71
(dp72
g14
I01
sg15
F0.008922811488644933
sg16
g69
sbs(I-39
I2
tp73
g1
(g10
g3
Ntp74
Rp75
(dp76
g14
I00
sg15
F-1.6544635407924912
sg16
g73
sbs(I-42
I1
tp77
g1
(g10
g3
Ntp78
Rp79
(dp80
g14
I01
sg15
F-0.5124742391905134
sg16
g77
sbs(I-18
I2
tp81
g1
(g10
g3
Ntp82
Rp83
(dp84
g14
I00
sg15
F2.5416239644042844
sg16
g81
sbs(I-37
I3
tp85
g1
(g10
g3
Ntp86
Rp87
(dp88
g14
I01
sg15
F-0.8358326533115161
sg16
g85
sbs(I3122
I1
tp89
g1
(g10
g3
Ntp90
Rp91
(dp92
g14
I01
sg15
F-1.1438477929680173
sg16
g89
sbs(I-32
I1
tp93
g1
(g10
g3
Ntp94
Rp95
(dp96
g14
I01
sg15
F-0.25898697384728925
sg16
g93
sbs(I-34
I3
tp97
g1
(g10
g3
Ntp98
Rp99
(dp100
g14
I01
sg15
F-0.27866558235005057
sg16
g97
sbs(I-29
I1
tp101
g1
(g10
g3
Ntp102
Rp103
(dp104
g14
I01
sg15
F0.08023390581733965
sg16
g101
sbs(I-47
I3
tp105
g1
(g10
g3
Ntp106
Rp107
(dp108
g14
I01
sg15
F-3.4454515650589532
sg16
g105
sbs(I-40
I0
tp109
g1
(g10
g3
Ntp110
Rp111
(dp112
g14
I01
sg15
F0.6832579791493765
sg16
g109
sbs(I-19
I0
tp113
g1
(g10
g3
Ntp114
Rp115
(dp116
g14
I01
sg15
F-0.42541848070743804
sg16
g113
sbs(I-12
I3
tp117
g1
(g10
g3
Ntp118
Rp119
(dp120
g14
I01
sg15
F-0.055447889510589876
sg16
g117
sbs(I-6
I2
tp121
g1
(g10
g3
Ntp122
Rp123
(dp124
g14
I01
sg15
F-2.172967169066773
sg16
g121
sbs(I-4
I1
tp125
g1
(g10
g3
Ntp126
Rp127
(dp128
g14
I01
sg15
F-0.07078311614616876
sg16
g125
sbs(I-25
I2
tp129
g1
(g10
g3
Ntp130
Rp131
(dp132
g14
I01
sg15
F-1.0270801171225739
sg16
g129
sbs(I-4
I3122
tp133
g1
(g10
g3
Ntp134
Rp135
(dp136
g14
I01
sg15
F0.7171006931696084
sg16
g133
sbs(I-19
I3
tp137
g1
(g10
g3
Ntp138
Rp139
(dp140
g14
I00
sg15
F-1.094628656901971
sg16
g137
sbs(I-12
I0
tp141
g1
(g10
g3
Ntp142
Rp143
(dp144
g14
I01
sg15
F1.2077114907971531
sg16
g141
sbs(I-33
I3
tp145
g1
(g10
g3
Ntp146
Rp147
(dp148
g14
I01
sg15
F0.5247300176244557
sg16
g145
sbs(I-1
I1
tp149
g1
(g10
g3
Ntp150
Rp151
(dp152
g14
I01
sg15
F-2.88248321712893
sg16
g149
sbs(I-44
I2
tp153
g1
(g10
g3
Ntp154
Rp155
(dp156
g14
I01
sg15
F1.8408402120976737
sg16
g153
sbs(I-13
I2
tp157
g1
(g10
g3
Ntp158
Rp159
(dp160
g14
I01
sg15
F-1.5287612304844025
sg16
g157
sbs(I-36
I0
tp161
g1
(g10
g3
Ntp162
Rp163
(dp164
g14
I01
sg15
F2.2363601982745642
sg16
g161
sbs(I-7
I3
tp165
g1
(g10
g3
Ntp166
Rp167
(dp168
g14
I01
sg15
F-1.1366208881437183
sg16
g165
sbs(I-10
I0
tp169
g1
(g10
g3
Ntp170
Rp171
(dp172
g14
I01
sg15
F3.1142406409672754
sg16
g169
sbs(I-5
I0
tp173
g1
(g10
g3
Ntp174
Rp175
(dp176
g14
I00
sg15
F-0.22802631023691883
sg16
g173
sbs(I-24
I3
tp177
g1
(g10
g3
Ntp178
Rp179
(dp180
g14
I01
sg15
F1.0084742256013464
sg16
g177
sbs(I-23
I2
tp181
g1
(g10
g3
Ntp182
Rp183
(dp184
g14
I01
sg15
F1.1456123131512068
sg16
g181
sbs(I-2
I2
tp185
g1
(g10
g3
Ntp186
Rp187
(dp188
g14
I01
sg15
F-1.0013962293605407
sg16
g185
sbs(I-49
I1
tp189
g1
(g10
g3
Ntp190
Rp191
(dp192
g14
I01
sg15
F-0.6198440087129294
sg16
g189
sbs(I-16
I1
tp193
g1
(g10
g3
Ntp194
Rp195
(dp196
g14
I01
sg15
F-0.433061904589255
sg16
g193
sbs(I-18
I3
tp197
g1
(g10
g3
Ntp198
Rp199
(dp200
g14
I01
sg15
F1.7542250455411081
sg16
g197
sbs(I-37
I2
tp201
g1
(g10
g3
Ntp202
Rp203
(dp204
g14
I01
sg15
F-1.6283195544735984
sg16
g201
sbs(I-32
I2
tp205
g1
(g10
g3
Ntp206
Rp207
(dp208
g14
I01
sg15
F1.4405665195677402
sg16
g205
sbs(I-34
I0
tp209
g1
(g10
g3
Ntp210
Rp211
(dp212
g14
I01
sg15
F-0.15200962083382596
sg16
g209
sbs(I-29
I0
tp213
g1
(g10
g3
Ntp214
Rp215
(dp216
g14
I00
sg15
F-0.1516544414414595
sg16
g213
sbs(I-48
I3
tp217
g1
(g10
g3
Ntp218
Rp219
(dp220
g14
I00
sg15
F-0.8792496252707851
sg16
g217
sbs(I-3
I0
tp221
g1
(g10
g3
Ntp222
Rp223
(dp224
g14
I01
sg15
F2.635605586572977
sg16
g221
sbs(I-45
I3
tp225
g1
(g10
g3
Ntp226
Rp227
(dp228
g14
I01
sg15
F-0.7474049905444803
sg16
g225
sbs(I-40
I1
tp229
g1
(g10
g3
Ntp230
Rp231
(dp232
g14
I01
sg15
F2.5060810507657783
sg16
g229
sbs(I-11
I1
tp233
g1
(g10
g3
Ntp234
Rp235
(dp236
g14
I01
sg15
F0.876487680682687
sg16
g233
sbs(I-27
I0
tp237
g1
(g10
g3
Ntp238
Rp239
(dp240
g14
I01
sg15
F1.6182501299969898
sg16
g237
sbs(I-22
I0
tp241
g1
(g10
g3
Ntp242
Rp243
(dp244
g14
I01
sg15
F2.5409868537964924
sg16
g241
sbs(I-17
I3
tp245
g1
(g10
g3
Ntp246
Rp247
(dp248
g14
I01
sg15
F0.06136911353292923
sg16
g245
sbs(I-12
I1
tp249
g1
(g10
g3
Ntp250
Rp251
(dp252
g14
I01
sg15
F3.384960365843777
sg16
g249
sbs(I-35
I1
tp253
g1
(g10
g3
Ntp254
Rp255
(dp256
g14
I01
sg15
F-2.088030044616731
sg16
g253
sbs(I-30
I3
tp257
g1
(g10
g3
Ntp258
Rp259
(dp260
g14
I01
sg15
F-1.9782439658255593
sg16
g257
sbs(I-46
I0
tp261
g1
(g10
g3
Ntp262
Rp263
(dp264
g14
I01
sg15
F-2.771680958750658
sg16
g261
sbs(I-25
I0
tp265
g1
(g10
g3
Ntp266
Rp267
(dp268
g14
I01
sg15
F4.073815117588353
sg16
g265
sbs(I-20
I0
tp269
g1
(g10
g3
Ntp270
Rp271
(dp272
g14
I01
sg15
F0.35699239937004457
sg16
g269
sbs(I-15
I0
tp273
g1
(g10
g3
Ntp274
Rp275
(dp276
g14
I01
sg15
F-3.608632263596205
sg16
g273
sbs(I-43
I2
tp277
g1
(g10
g3
Ntp278
Rp279
(dp280
g14
I01
sg15
F-2.7064330306722653
sg16
g277
sbs(I-8
I3
tp281
g1
(g10
g3
Ntp282
Rp283
(dp284
g14
I01
sg15
F0.9290556502819937
sg16
g281
sbs(I-36
I1
tp285
g1
(g10
g3
Ntp286
Rp287
(dp288
g14
I01
sg15
F1.1437196416633586
sg16
g285
sbs(I-10
I1
tp289
g1
(g10
g3
Ntp290
Rp291
(dp292
g14
I01
sg15
F-0.5230585251212525
sg16
g289
sbs(I-5
I3
tp293
g1
(g10
g3
Ntp294
Rp295
(dp296
g14
I01
sg15
F1.1239608866091988
sg16
g293
sbs(I-33
I1
tp297
g1
(g10
g3
Ntp298
Rp299
(dp300
g14
I01
sg15
F0.9842323689366851
sg16
g297
sbs(I-39
I0
tp301
g1
(g10
g3
Ntp302
Rp303
(dp304
g14
I01
sg15
F-4.313294902703475
sg16
g301
sbs(I-18
I0
tp305
g1
(g10
g3
Ntp306
Rp307
(dp308
g14
I01
sg15
F1.0152759258717055
sg16
g305
sbs(I-32
I3
tp309
g1
(g10
g3
Ntp310
Rp311
(dp312
g14
I01
sg15
F0.790967142610123
sg16
g309
sbs(I-34
I1
tp313
g1
(g10
g3
Ntp314
Rp315
(dp316
g14
I00
sg15
F-0.9606617905995718
sg16
g313
sbs(I-47
I1
tp317
g1
(g10
g3
Ntp318
Rp319
(dp320
g14
I01
sg15
F-0.5872194144356223
sg16
g317
sbs(I-45
I2
tp321
g1
(g10
g3
Ntp322
Rp323
(dp324
g14
I01
sg15
F0.2798313249350882
sg16
g321
sbs(I-40
I2
tp325
g1
(g10
g3
Ntp326
Rp327
(dp328
g14
I01
sg15
F-0.5803081105874117
sg16
g325
sbs(I-37
I0
tp329
g1
(g10
g3
Ntp330
Rp331
(dp332
g14
I01
sg15
F-0.32541531790271205
sg16
g329
sbs(I-32
I0
tp333
g1
(g10
g3
Ntp334
Rp335
(dp336
g14
I01
sg15
F-4.545511442375265
sg16
g333
sbs(I-11
I0
tp337
g1
(g10
g3
Ntp338
Rp339
(dp340
g14
I01
sg15
F0.6807128405537237
sg16
g337
sbs(I-6
I0
tp341
g1
(g10
g3
Ntp342
Rp343
(dp344
g14
I01
sg15
F-0.15218857854256534
sg16
g341
sbs(I-4
I3
tp345
g1
(g10
g3
Ntp346
Rp347
(dp348
g14
I01
sg15
F4.321664573069751
sg16
g345
sbs(I-48
I1
tp349
g1
(g10
g3
Ntp350
Rp351
(dp352
g14
I01
sg15
F-0.17346386989992446
sg16
g349
sbs(I-45
I1
tp353
g1
(g10
g3
Ntp354
Rp355
(dp356
g14
I01
sg15
F0.4889734939128996
sg16
g353
sbs(I-19
I1
tp357
g1
(g10
g3
Ntp358
Rp359
(dp360
g14
I01
sg15
F0.952408421295074
sg16
g357
sbs(I-2
I1
tp361
g1
(g10
g3
Ntp362
Rp363
(dp364
g14
I01
sg15
F1.7337846850593384
sg16
g361
sbs(I-11
I3
tp365
g1
(g10
g3
Ntp366
Rp367
(dp368
g14
I01
sg15
F-0.7557443777489532
sg16
g365
sbs(I-30
I0
tp369
g1
(g10
g3
Ntp370
Rp371
(dp372
g14
I01
sg15
F0.3091810290499171
sg16
g369
sbs(I-9
I0
tp373
g1
(g10
g3
Ntp374
Rp375
(dp376
g14
I01
sg15
F1.0200452111319889
sg16
g373
sbs(I-28
I3
tp377
g1
(g10
g3
Ntp378
Rp379
(dp380
g14
I01
sg15
F0.7635646647288709
sg16
g377
sbs(I-27
I2
tp381
g1
(g10
g3
Ntp382
Rp383
(dp384
g14
I01
sg15
F-2.1970025637682387
sg16
g381
sbs(I-25
I3
tp385
g1
(g10
g3
Ntp386
Rp387
(dp388
g14
I01
sg15
F1.1237261908281604
sg16
g385
sbs(I-43
I1
tp389
g1
(g10
g3
Ntp390
Rp391
(dp392
g14
I01
sg15
F-1.2599888713557723
sg16
g389
sbs(I-38
I3
tp393
g1
(g10
g3
Ntp394
Rp395
(dp396
g14
I01
sg15
F-0.18395654195119354
sg16
g393
sbs(I-36
I2
tp397
g1
(g10
g3
Ntp398
Rp399
(dp400
g14
I01
sg15
F-0.4001895172888919
sg16
g397
sbs(I-35
I3
tp401
g1
(g10
g3
Ntp402
Rp403
(dp404
g14
I01
sg15
F0.7569535862708399
sg16
g401
sbs(I-28
I0
tp405
g1
(g10
g3
Ntp406
Rp407
(dp408
g14
I01
sg15
F-0.41837787506052215
sg16
g405
sbssS'nodes'
p409
(dp410
I0
g1
(cneat.genes
DefaultNodeGene
p411
g3
Ntp412
Rp413
(dp414
S'activation'
p415
S'sigmoid'
p416
sS'bias'
p417
F-2.149315780628678
sS'response'
p418
F1.0
sg16
I0
sS'aggregation'
p419
S'sum'
p420
sbsI1
g1
(g411
g3
Ntp421
Rp422
(dp423
g415
g416
sg417
F1.101669893331533
sg418
F1.0
sg16
I1
sg419
g420
sbsI2
g1
(g411
g3
Ntp424
Rp425
(dp426
g415
g416
sg417
F0.3580179067291336
sg418
F1.0
sg16
I2
sg419
g420
sbsI3
g1
(g411
g3
Ntp427
Rp428
(dp429
g415
g416
sg417
F0.771918040012547
sg418
F1.0
sg16
I3
sg419
g420
sbsI3122
g1
(g411
g3
Ntp430
Rp431
(dp432
g415
g416
sg417
F-0.6885628469633145
sg418
F1.0
sg16
I3122
sg419
g420
sbssg16
I12124
sS'fitness'
p433
I60
sba(lp434
cnumpy.core.multiarray
_reconstruct
p435
(cnumpy
ndarray
p436
(I0
tp437
S'b'
p438
tp439
Rp440
(I1
(I1
tp441
cnumpy
dtype
p442
(S'i8'
p443
I0
I1
tp444
Rp445
(I3
S'<'
p446
NNNI-1
I-1
I0
tp447
bI00
S'F\x00\x00\x00\x00\x00\x00\x00'
p448
tp449
baI25
aI3
aI50
aa.