ccopy_reg
_reconstructor
p0
(cneat.genome
DefaultGenome
p1
c__builtin__
object
p2
Ntp3
Rp4
(dp5
S'connections'
p6
(dp7
(I-96
I1
tp8
g0
(cneat.genes
DefaultConnectionGene
p9
g2
Ntp10
Rp11
(dp12
S'enabled'
p13
I01
sS'weight'
p14
F-0.34829151825927185
sS'key'
p15
g8
sbs(I-12
I154
tp16
g0
(g9
g2
Ntp17
Rp18
(dp19
g13
I01
sg14
F-1.2562199717545584
sg15
g16
sbs(I-51
I2
tp20
g0
(g9
g2
Ntp21
Rp22
(dp23
g13
I01
sg14
F-1.079698901780451
sg15
g20
sbs(I-1
I0
tp24
g0
(g9
g2
Ntp25
Rp26
(dp27
g13
I01
sg14
F-0.6261319492175701
sg15
g24
sbs(I-46
I2
tp28
g0
(g9
g2
Ntp29
Rp30
(dp31
g13
I01
sg14
F-0.5510045551201906
sg15
g28
sbs(I-49
I3
tp32
g0
(g9
g2
Ntp33
Rp34
(dp35
g13
I01
sg14
F-0.2834440813678905
sg15
g32
sbs(I-15
I2
tp36
g0
(g9
g2
Ntp37
Rp38
(dp39
g13
I01
sg14
F0.047500895945303157
sg15
g36
sbs(I-18
I1
tp40
g0
(g9
g2
Ntp41
Rp42
(dp43
g13
I01
sg14
F-0.6906059197359339
sg15
g40
sbs(I-62
I3
tp44
g0
(g9
g2
Ntp45
Rp46
(dp47
g13
I01
sg14
F-1.0633189621784715
sg15
g44
sbs(I-13
I3
tp48
g0
(g9
g2
Ntp49
Rp50
(dp51
g13
I01
sg14
F0.26869078289655707
sg15
g48
sbs(I-65
I2
tp52
g0
(g9
g2
Ntp53
Rp54
(dp55
g13
I01
sg14
F0.06683850118858076
sg15
g52
sbs(I-8
I1
tp56
g0
(g9
g2
Ntp57
Rp58
(dp59
g13
I01
sg14
F1.856376622394845
sg15
g56
sbs(I-100
I154
tp60
g0
(g9
g2
Ntp61
Rp62
(dp63
g13
I01
sg14
F0.24355620722557297
sg15
g60
sbs(I-88
I155
tp64
g0
(g9
g2
Ntp65
Rp66
(dp67
g13
I01
sg14
F0.639621033698219
sg15
g64
sbs(I-3
I154
tp68
g0
(g9
g2
Ntp69
Rp70
(dp71
g13
I01
sg14
F2.039802409883044
sg15
g68
sbs(I-31
I1
tp72
g0
(g9
g2
Ntp73
Rp74
(dp75
g13
I01
sg14
F1.1336572470243695
sg15
g72
sbs(I-2
I0
tp76
g0
(g9
g2
Ntp77
Rp78
(dp79
g13
I01
sg14
F-1.3374716536824687
sg15
g76
sbs(I-81
I155
tp80
g0
(g9
g2
Ntp81
Rp82
(dp83
g13
I01
sg14
F0.087928787712368
sg15
g80
sbs(I-29
I1
tp84
g0
(g9
g2
Ntp85
Rp86
(dp87
g13
I01
sg14
F1.8375965545220811
sg15
g84
sbs(I-5
I1
tp88
g0
(g9
g2
Ntp89
Rp90
(dp91
g13
I01
sg14
F-0.5210113454116791
sg15
g88
sbs(I-17
I154
tp92
g0
(g9
g2
Ntp93
Rp94
(dp95
g13
I01
sg14
F-0.052146756164225476
sg15
g92
sbs(I-76
I3
tp96
g0
(g9
g2
Ntp97
Rp98
(dp99
g13
I01
sg14
F0.6919646758845261
sg15
g96
sbs(I-22
I154
tp100
g0
(g9
g2
Ntp101
Rp102
(dp103
g13
I01
sg14
F-0.0593547438447658
sg15
g100
sbs(I-11
I155
tp104
g0
(g9
g2
Ntp105
Rp106
(dp107
g13
I01
sg14
F-1.8350934297422703
sg15
g104
sbs(I-75
I2
tp108
g0
(g9
g2
Ntp109
Rp110
(dp111
g13
I01
sg14
F-1.0126870069530294
sg15
g108
sbs(I-26
I0
tp112
g0
(g9
g2
Ntp113
Rp114
(dp115
g13
I01
sg14
F1.5732571591267241
sg15
g112
sbs(I-92
I155
tp116
g0
(g9
g2
Ntp117
Rp118
(dp119
g13
I01
sg14
F1.8998877254650293
sg15
g116
sbs(I-70
I2
tp120
g0
(g9
g2
Ntp121
Rp122
(dp123
g13
I01
sg14
F0.7970759960460048
sg15
g120
sbs(I-21
I0
tp124
g0
(g9
g2
Ntp125
Rp126
(dp127
g13
I01
sg14
F1.669068331754115
sg15
g124
sbs(I-90
I2
tp128
g0
(g9
g2
Ntp129
Rp130
(dp131
g13
I01
sg14
F-0.06898407266471376
sg15
g128
sbs(I-91
I154
tp132
g0
(g9
g2
Ntp133
Rp134
(dp135
g13
I01
sg14
F0.26010855790024257
sg15
g132
sbs(I-84
I154
tp136
g0
(g9
g2
Ntp137
Rp138
(dp139
g13
I01
sg14
F0.594822898184709
sg15
g136
sbs(I-91
I1
tp140
g0
(g9
g2
Ntp141
Rp142
(dp143
g13
I01
sg14
F1.0531598484733835
sg15
g140
sbs(I-35
I155
tp144
g0
(g9
g2
Ntp145
Rp146
(dp147
g13
I01
sg14
F-1.1373610126715394
sg15
g144
sbs(I-37
I3
tp148
g0
(g9
g2
Ntp149
Rp150
(dp151
g13
I01
sg14
F1.6345960406249507
sg15
g148
sbs(I-80
I155
tp152
g0
(g9
g2
Ntp153
Rp154
(dp155
g13
I01
sg14
F-0.7515159604493671
sg15
g152
sbs(I-32
I1
tp156
g0
(g9
g2
Ntp157
Rp158
(dp159
g13
I01
sg14
F0.1269891248433638
sg15
g156
sbs(I-6
I1
tp160
g0
(g9
g2
Ntp161
Rp162
(dp163
g13
I01
sg14
F-0.6180983208833764
sg15
g160
sbs(I-34
I3
tp164
g0
(g9
g2
Ntp165
Rp166
(dp167
g13
I01
sg14
F-1.3269857019598592
sg15
g164
sbs(I-72
I155
tp168
g0
(g9
g2
Ntp169
Rp170
(dp171
g13
I01
sg14
F-0.37762777547991755
sg15
g168
sbs(I-31
I155
tp172
g0
(g9
g2
Ntp173
Rp174
(dp175
g13
I01
sg14
F-0.7476202131803718
sg15
g172
sbs(I-78
I155
tp176
g0
(g9
g2
Ntp177
Rp178
(dp179
g13
I01
sg14
F-1.9832840680505008
sg15
g176
sbs(I-48
I2
tp180
g0
(g9
g2
Ntp181
Rp182
(dp183
g13
I01
sg14
F-1.0050686740260406
sg15
g180
sbs(I-76
I0
tp184
g0
(g9
g2
Ntp185
Rp186
(dp187
g13
I01
sg14
F-1.0340827494583849
sg15
g184
sbs(I-71
I0
tp188
g0
(g9
g2
Ntp189
Rp190
(dp191
g13
I01
sg14
F-0.6270422482292621
sg15
g188
sbs(I-2
I154
tp192
g0
(g9
g2
Ntp193
Rp194
(dp195
g13
I01
sg14
F1.013268646195434
sg15
g192
sbs(I-99
I2
tp196
g0
(g9
g2
Ntp197
Rp198
(dp199
g13
I01
sg14
F-2.154670296329145
sg15
g196
sbs(I-94
I2
tp200
g0
(g9
g2
Ntp201
Rp202
(dp203
g13
I01
sg14
F-0.16097155877807867
sg15
g200
sbs(I-40
I0
tp204
g0
(g9
g2
Ntp205
Rp206
(dp207
g13
I01
sg14
F-0.6939358061674495
sg15
g204
sbs(I-94
I155
tp208
g0
(g9
g2
Ntp209
Rp210
(dp211
g13
I01
sg14
F0.35063199862961375
sg15
g208
sbs(I-19
I0
tp212
g0
(g9
g2
Ntp213
Rp214
(dp215
g13
I01
sg14
F0.0744503786154625
sg15
g212
sbs(I-63
I2
tp216
g0
(g9
g2
Ntp217
Rp218
(dp219
g13
I01
sg14
F1.5835914970009153
sg15
g216
sbs(I-18
I155
tp220
g0
(g9
g2
Ntp221
Rp222
(dp223
g13
I01
sg14
F0.42551870869129504
sg15
g220
sbs(I-1
I154
tp224
g0
(g9
g2
Ntp225
Rp226
(dp227
g13
I01
sg14
F-3.5831536558342725
sg15
g224
sbs(I-75
I154
tp228
g0
(g9
g2
Ntp229
Rp230
(dp231
g13
I01
sg14
F-1.3832900619992528
sg15
g228
sbs(I-61
I3
tp232
g0
(g9
g2
Ntp233
Rp234
(dp235
g13
I01
sg14
F-0.7422186663418191
sg15
g232
sbs(I-12
I3
tp236
g0
(g9
g2
Ntp237
Rp238
(dp239
g13
I01
sg14
F0.8724749773786087
sg15
g236
sbs(I-89
I1
tp240
g0
(g9
g2
Ntp241
Rp242
(dp243
g13
I01
sg14
F0.15578241971602996
sg15
g240
sbs(I-40
I155
tp244
g0
(g9
g2
Ntp245
Rp246
(dp247
g13
I01
sg14
F0.8941172079571748
sg15
g244
sbs(I-70
I154
tp248
g0
(g9
g2
Ntp249
Rp250
(dp251
g13
I01
sg14
F0.3176587786832469
sg15
g248
sbs(I-46
I155
tp252
g0
(g9
g2
Ntp253
Rp254
(dp255
g13
I01
sg14
F2.08362765711993
sg15
g252
sbs(I-6
I2
tp256
g0
(g9
g2
Ntp257
Rp258
(dp259
g13
I01
sg14
F2.4283350971261632
sg15
g256
sbs(I-58
I3
tp260
g0
(g9
g2
Ntp261
Rp262
(dp263
g13
I01
sg14
F0.7765539270551636
sg15
g260
sbs(I-53
I1
tp264
g0
(g9
g2
Ntp265
Rp266
(dp267
g13
I01
sg14
F-0.26180202126508784
sg15
g264
sbs(I-4
I1
tp268
g0
(g9
g2
Ntp269
Rp270
(dp271
g13
I01
sg14
F-0.46891427637423455
sg15
g268
sbs(I-72
I2
tp272
g0
(g9
g2
Ntp273
Rp274
(dp275
g13
I00
sg14
F0.8638712334703031
sg15
g272
sbs(I-9
I154
tp276
g0
(g9
g2
Ntp277
Rp278
(dp279
g13
I01
sg14
F-1.370090637530776
sg15
g276
sbs(I-95
I0
tp280
g0
(g9
g2
Ntp281
Rp282
(dp283
g13
I01
sg14
F-0.6943410088404582
sg15
g280
sbs(I-90
I154
tp284
g0
(g9
g2
Ntp285
Rp286
(dp287
g13
I01
sg14
F0.8495851498551923
sg15
g284
sbs(I-22
I3
tp288
g0
(g9
g2
Ntp289
Rp290
(dp291
g13
I01
sg14
F-0.5429880252849474
sg15
g288
sbs(I-74
I0
tp292
g0
(g9
g2
Ntp293
Rp294
(dp295
g13
I01
sg14
F1.186881999914035
sg15
g292
sbs(I-25
I2
tp296
g0
(g9
g2
Ntp297
Rp298
(dp299
g13
I01
sg14
F-0.8224623925527046
sg15
g296
sbs(I-20
I2
tp300
g0
(g9
g2
Ntp301
Rp302
(dp303
g13
I01
sg14
F-0.14230092194443894
sg15
g300
sbs(I-64
I0
tp304
g0
(g9
g2
Ntp305
Rp306
(dp307
g13
I01
sg14
F0.08066166218111619
sg15
g304
sbs(I-43
I154
tp308
g0
(g9
g2
Ntp309
Rp310
(dp311
g13
I01
sg14
F0.3039249017624205
sg15
g308
sbs(I-59
I154
tp312
g0
(g9
g2
Ntp313
Rp314
(dp315
g13
I01
sg14
F0.10868810857587148
sg15
g312
sbs(I-38
I0
tp316
g0
(g9
g2
Ntp317
Rp318
(dp319
g13
I01
sg14
F1.3496734889226216
sg15
g316
sbs(I-90
I1
tp320
g0
(g9
g2
Ntp321
Rp322
(dp323
g13
I01
sg14
F-2.8094110049022847
sg15
g320
sbs(I-66
I2
tp324
g0
(g9
g2
Ntp325
Rp326
(dp327
g13
I01
sg14
F-1.0891284053673547
sg15
g324
sbs(I-53
I2
tp328
g0
(g9
g2
Ntp329
Rp330
(dp331
g13
I01
sg14
F-1.9696178955545962
sg15
g328
sbs(I-36
I3
tp332
g0
(g9
g2
Ntp333
Rp334
(dp335
g13
I01
sg14
F1.3058518276361393
sg15
g332
sbs(I-35
I2
tp336
g0
(g9
g2
Ntp337
Rp338
(dp339
g13
I01
sg14
F0.4087254655864654
sg15
g336
sbs(I-54
I1
tp340
g0
(g9
g2
Ntp341
Rp342
(dp343
g13
I01
sg14
F-2.331415351473913
sg15
g340
sbs(I-60
I2
tp344
g0
(g9
g2
Ntp345
Rp346
(dp347
g13
I01
sg14
F0.2576377200709017
sg15
g344
sbs(I-82
I3
tp348
g0
(g9
g2
Ntp349
Rp350
(dp351
g13
I01
sg14
F0.8376271666812731
sg15
g348
sbs(I-77
I1
tp352
g0
(g9
g2
Ntp353
Rp354
(dp355
g13
I01
sg14
F0.3088383523946276
sg15
g352
sbs(I-28
I1
tp356
g0
(g9
g2
Ntp357
Rp358
(dp359
g13
I01
sg14
F-0.5450638594192807
sg15
g356
sbs(I-96
I2
tp360
g0
(g9
g2
Ntp361
Rp362
(dp363
g13
I01
sg14
F0.42438589421927175
sg15
g360
sbs(I-51
I1
tp364
g0
(g9
g2
Ntp365
Rp366
(dp367
g13
I01
sg14
F1.6735564312510824
sg15
g364
sbs(I-26
I3
tp368
g0
(g9
g2
Ntp369
Rp370
(dp371
g13
I01
sg14
F-1.795657901391158
sg15
g368
sbs(I-95
I3
tp372
g0
(g9
g2
Ntp373
Rp374
(dp375
g13
I01
sg14
F-0.9109062224621083
sg15
g372
sbs(I-46
I3
tp376
g0
(g9
g2
Ntp377
Rp378
(dp379
g13
I01
sg14
F-1.1862782322630192
sg15
g376
sbs(I-98
I0
tp380
g0
(g9
g2
Ntp381
Rp382
(dp383
g13
I01
sg14
F-0.2171104038456172
sg15
g380
sbs(I-49
I2
tp384
g0
(g9
g2
Ntp385
Rp386
(dp387
g13
I01
sg14
F1.3694617779498017
sg15
g384
sbs(I-25
I1
tp388
g0
(g9
g2
Ntp389
Rp390
(dp391
g13
I01
sg14
F0.2411948623078916
sg15
g388
sbs(I-25
I155
tp392
g0
(g9
g2
Ntp393
Rp394
(dp395
g13
I01
sg14
F-0.6344057407247574
sg15
g392
sbs(I-88
I0
tp396
g0
(g9
g2
Ntp397
Rp398
(dp399
g13
I00
sg14
F-0.3939576199228596
sg15
g396
sbs(I-15
I1
tp400
g0
(g9
g2
Ntp401
Rp402
(dp403
g13
I01
sg14
F-1.206116136172508
sg15
g400
sbs(I-67
I0
tp404
g0
(g9
g2
Ntp405
Rp406
(dp407
g13
I01
sg14
F1.2437273866899432
sg15
g404
sbs(I-62
I0
tp408
g0
(g9
g2
Ntp409
Rp410
(dp411
g13
I01
sg14
F0.6289236482276827
sg15
g408
sbs(I-71
I155
tp412
g0
(g9
g2
Ntp413
Rp414
(dp415
g13
I01
sg14
F0.8749118878083544
sg15
g412
sbs(I-41
I0
tp416
g0
(g9
g2
Ntp417
Rp418
(dp419
g13
I01
sg14
F0.10199325480663493
sg15
g416
sbs(I-8
I2
tp420
g0
(g9
g2
Ntp421
Rp422
(dp423
g13
I01
sg14
F-1.8910980959407735
sg15
g420
sbs(I-36
I0
tp424
g0
(g9
g2
Ntp425
Rp426
(dp427
g13
I01
sg14
F1.402697725064871
sg15
g424
sbs(I-47
I154
tp428
g0
(g9
g2
Ntp429
Rp430
(dp431
g13
I01
sg14
F-0.5515597223171029
sg15
g428
sbs(I-26
I154
tp432
g0
(g9
g2
Ntp433
Rp434
(dp435
g13
I01
sg14
F0.7323066283118115
sg15
g432
sbs(I-59
I2
tp436
g0
(g9
g2
Ntp437
Rp438
(dp439
g13
I01
sg14
F1.33033201658108
sg15
g436
sbs(I-24
I154
tp440
g0
(g9
g2
Ntp441
Rp442
(dp443
g13
I01
sg14
F-0.38568711188120464
sg15
g440
sbs(I-81
I154
tp444
g0
(g9
g2
Ntp445
Rp446
(dp447
g13
I01
sg14
F-1.1635307200499878
sg15
g444
sbs(I-5
I0
tp448
g0
(g9
g2
Ntp449
Rp450
(dp451
g13
I01
sg14
F2.770597171386942
sg15
g448
sbs(I-24
I3
tp452
g0
(g9
g2
Ntp453
Rp454
(dp455
g13
I01
sg14
F0.09236485358187682
sg15
g452
sbs(I-42
I2
tp456
g0
(g9
g2
Ntp457
Rp458
(dp459
g13
I01
sg14
F-0.5054852128965939
sg15
g456
sbs(I-5
I155
tp460
g0
(g9
g2
Ntp461
Rp462
(dp463
g13
I01
sg14
F-0.38259171081002863
sg15
g460
sbs(I-78
I0
tp464
g0
(g9
g2
Ntp465
Rp466
(dp467
g13
I01
sg14
F0.003363767258330541
sg15
g464
sbs(I-23
I2
tp468
g0
(g9
g2
Ntp469
Rp470
(dp471
g13
I01
sg14
F0.10509555710443524
sg15
g468
sbs(I-1
I2
tp472
g0
(g9
g2
Ntp473
Rp474
(dp475
g13
I01
sg14
F-1.5770079578759413
sg15
g472
sbs(I-21
I3
tp476
g0
(g9
g2
Ntp477
Rp478
(dp479
g13
I01
sg14
F0.5999858618708664
sg15
g476
sbs(I-16
I1
tp480
g0
(g9
g2
Ntp481
Rp482
(dp483
g13
I01
sg14
F-1.3699055447419475
sg15
g480
sbs(I-86
I155
tp484
g0
(g9
g2
Ntp485
Rp486
(dp487
g13
I01
sg14
F3.059183375762521
sg15
g484
sbs(I-91
I0
tp488
g0
(g9
g2
Ntp489
Rp490
(dp491
g13
I01
sg14
F1.1289317789400046
sg15
g488
sbs(I-65
I3
tp492
g0
(g9
g2
Ntp493
Rp494
(dp495
g13
I01
sg14
F-0.07242225559231918
sg15
g492
sbs(I-18
I3
tp496
g0
(g9
g2
Ntp497
Rp498
(dp499
g13
I01
sg14
F-0.22372452524840641
sg15
g496
sbs(I-19
I2
tp500
g0
(g9
g2
Ntp501
Rp502
(dp503
g13
I01
sg14
F-1.034074318247183
sg15
g500
sbs(I-37
I2
tp504
g0
(g9
g2
Ntp505
Rp506
(dp507
g13
I01
sg14
F-0.14175252647672007
sg15
g504
sbs(I-93
I155
tp508
g0
(g9
g2
Ntp509
Rp510
(dp511
g13
I01
sg14
F0.716066434447199
sg15
g508
sbs(I-49
I154
tp512
g0
(g9
g2
Ntp513
Rp514
(dp515
g13
I01
sg14
F-0.5392571496983016
sg15
g512
sbs(I-55
I0
tp516
g0
(g9
g2
Ntp517
Rp518
(dp519
g13
I01
sg14
F0.24460922267090324
sg15
g516
sbs(I-31
I3
tp520
g0
(g9
g2
Ntp521
Rp522
(dp523
g13
I01
sg14
F1.635204355899315
sg15
g520
sbs(I-34
I0
tp524
g0
(g9
g2
Ntp525
Rp526
(dp527
g13
I01
sg14
F-1.2760249131584822
sg15
g524
sbs(I-78
I2
tp528
g0
(g9
g2
Ntp529
Rp530
(dp531
g13
I01
sg14
F1.0603532944090073
sg15
g528
sbs(I-31
I154
tp532
g0
(g9
g2
Ntp533
Rp534
(dp535
g13
I01
sg14
F1.1727864283331233
sg15
g532
sbs(I-81
I3
tp536
g0
(g9
g2
Ntp537
Rp538
(dp539
g13
I01
sg14
F1.963944285963647
sg15
g536
sbs(I-48
I3
tp540
g0
(g9
g2
Ntp541
Rp542
(dp543
g13
I01
sg14
F0.272024914912261
sg15
g540
sbs(I-10
I154
tp544
g0
(g9
g2
Ntp545
Rp546
(dp547
g13
I01
sg14
F-0.24694222631689033
sg15
g544
sbs(I-76
I1
tp548
g0
(g9
g2
Ntp549
Rp550
(dp551
g13
I01
sg14
F-1.009043480552353
sg15
g548
sbs(I-3
I0
tp552
g0
(g9
g2
Ntp553
Rp554
(dp555
g13
I01
sg14
F-0.6278090814182576
sg15
g552
sbs(I-85
I154
tp556
g0
(g9
g2
Ntp557
Rp558
(dp559
g13
I01
sg14
F-1.0185297631142174
sg15
g556
sbs(I-26
I2
tp560
g0
(g9
g2
Ntp561
Rp562
(dp563
g13
I01
sg14
F1.98965024336733
sg15
g560
sbs(I-45
I3
tp564
g0
(g9
g2
Ntp565
Rp566
(dp567
g13
I01
sg14
F-0.3756839001421596
sg15
g564
sbs(I-36
I155
tp568
g0
(g9
g2
Ntp569
Rp570
(dp571
g13
I01
sg14
F-1.4503052228270343
sg15
g568
sbs(I-92
I2
tp572
g0
(g9
g2
Ntp573
Rp574
(dp575
g13
I01
sg14
F0.14440300168477588
sg15
g572
sbs(I-61
I155
tp576
g0
(g9
g2
Ntp577
Rp578
(dp579
g13
I01
sg14
F0.34116044219072117
sg15
g576
sbs(I-14
I1
tp580
g0
(g9
g2
Ntp581
Rp582
(dp583
g13
I00
sg14
F-0.1905558862976069
sg15
g580
sbs(I-91
I3
tp584
g0
(g9
g2
Ntp585
Rp586
(dp587
g13
I01
sg14
F-0.9856400100683632
sg15
g584
sbs(I-42
I3
tp588
g0
(g9
g2
Ntp589
Rp590
(dp591
g13
I01
sg14
F0.36185074694383695
sg15
g588
sbs(I-61
I2
tp592
g0
(g9
g2
Ntp593
Rp594
(dp595
g13
I01
sg14
F-1.1671559820121744
sg15
g592
sbs(I-84
I0
tp596
g0
(g9
g2
Ntp597
Rp598
(dp599
g13
I01
sg14
F0.5089946065824144
sg15
g596
sbs(I-11
I1
tp600
g0
(g9
g2
Ntp601
Rp602
(dp603
g13
I01
sg14
F0.9302918290812514
sg15
g600
sbs(I-79
I0
tp604
g0
(g9
g2
Ntp605
Rp606
(dp607
g13
I01
sg14
F1.5232329794639712
sg15
g604
sbs(I-95
I155
tp608
g0
(g9
g2
Ntp609
Rp610
(dp611
g13
I01
sg14
F0.9945057002203291
sg15
g608
sbs(I-9
I2
tp612
g0
(g9
g2
Ntp613
Rp614
(dp615
g13
I01
sg14
F-1.6985949481519085
sg15
g612
sbs(I-53
I0
tp616
g0
(g9
g2
Ntp617
Rp618
(dp619
g13
I01
sg14
F2.2480000410685306
sg15
g616
sbs(I-4
I2
tp620
g0
(g9
g2
Ntp621
Rp622
(dp623
g13
I01
sg14
F-0.6668320412037323
sg15
g620
sbs(I-72
I3
tp624
g0
(g9
g2
Ntp625
Rp626
(dp627
g13
I01
sg14
F-0.3929688982137713
sg15
g624
sbs(I-48
I0
tp628
g0
(g9
g2
Ntp629
Rp630
(dp631
g13
I01
sg14
F-2.2083892307780366
sg15
g628
sbs(I-100
I1
tp632
g0
(g9
g2
Ntp633
Rp634
(dp635
g13
I01
sg14
F0.2793698910271475
sg15
g632
sbs(I-48
I154
tp636
g0
(g9
g2
Ntp637
Rp638
(dp639
g13
I01
sg14
F-1.0127976778624648
sg15
g636
sbs(I-27
I0
tp640
g0
(g9
g2
Ntp641
Rp642
(dp643
g13
I01
sg14
F0.9868799736490763
sg15
g640
sbs(I-3
I3
tp644
g0
(g9
g2
Ntp645
Rp646
(dp647
g13
I01
sg14
F1.042921108930948
sg15
g644
sbs(I-71
I2
tp648
g0
(g9
g2
Ntp649
Rp650
(dp651
g13
I01
sg14
F-0.7897640613774084
sg15
g648
sbs(I-69
I3
tp652
g0
(g9
g2
Ntp653
Rp654
(dp655
g13
I01
sg14
F-0.6655141823690258
sg15
g652
sbs(I-97
I1
tp656
g0
(g9
g2
Ntp657
Rp658
(dp659
g13
I01
sg14
F1.472560967416519
sg15
g656
sbs(I-64
I1
tp660
g0
(g9
g2
Ntp661
Rp662
(dp663
g13
I01
sg14
F0.5375627998517208
sg15
g660
sbs(I-66
I154
tp664
g0
(g9
g2
Ntp665
Rp666
(dp667
g13
I01
sg14
F0.27822193448447685
sg15
g664
sbs(I-38
I155
tp668
g0
(g9
g2
Ntp669
Rp670
(dp671
g13
I01
sg14
F-0.06530903870930538
sg15
g668
sbs(I-14
I2
tp672
g0
(g9
g2
Ntp673
Rp674
(dp675
g13
I01
sg14
F2.441865249979002
sg15
g672
sbs(I-66
I3
tp676
g0
(g9
g2
Ntp677
Rp678
(dp679
g13
I01
sg14
F2.5132336002857523
sg15
g676
sbs(I-17
I3
tp680
g0
(g9
g2
Ntp681
Rp682
(dp683
g13
I01
sg14
F-0.4427609434618851
sg15
g680
sbs(I-85
I2
tp684
g0
(g9
g2
Ntp685
Rp686
(dp687
g13
I01
sg14
F1.239501637177566
sg15
g684
sbs(I-61
I1
tp688
g0
(g9
g2
Ntp689
Rp690
(dp691
g13
I01
sg14
F-0.2807595463929619
sg15
g688
sbs(I-45
I155
tp692
g0
(g9
g2
Ntp693
Rp694
(dp695
g13
I01
sg14
F1.1627766105901718
sg15
g692
sbs(I-51
I155
tp696
g0
(g9
g2
Ntp697
Rp698
(dp699
g13
I01
sg14
F-0.5049649373257425
sg15
g696
sbs(I-35
I1
tp700
g0
(g9
g2
Ntp701
Rp702
(dp703
g13
I01
sg14
F-0.06811062727004735
sg15
g700
sbs(I-79
I3
tp704
g0
(g9
g2
Ntp705
Rp706
(dp707
g13
I01
sg14
F0.9473837394664828
sg15
g704
sbs(I-9
I1
tp708
g0
(g9
g2
Ntp709
Rp710
(dp711
g13
I01
sg14
F-0.8739992326470664
sg15
g708
sbs(I-77
I0
tp712
g0
(g9
g2
Ntp713
Rp714
(dp715
g13
I01
sg14
F1.0189050917907727
sg15
g712
sbs(I-68
I1
tp716
g0
(g9
g2
Ntp717
Rp718
(dp719
g13
I01
sg14
F1.6771434448805582
sg15
g716
sbs(I-96
I3
tp720
g0
(g9
g2
Ntp721
Rp722
(dp723
g13
I01
sg14
F1.1438873419261857
sg15
g720
sbs(I-92
I154
tp724
g0
(g9
g2
Ntp725
Rp726
(dp727
g13
I01
sg14
F0.9822629163653621
sg15
g724
sbs(I-27
I2
tp728
g0
(g9
g2
Ntp729
Rp730
(dp731
g13
I01
sg14
F0.8961721393419496
sg15
g728
sbs(I-51
I0
tp732
g0
(g9
g2
Ntp733
Rp734
(dp735
g13
I01
sg14
F-0.11661993343898305
sg15
g732
sbs(I-67
I155
tp736
g0
(g9
g2
Ntp737
Rp738
(dp739
g13
I01
sg14
F0.14771081511084816
sg15
g736
sbs(I-95
I2
tp740
g0
(g9
g2
Ntp741
Rp742
(dp743
g13
I01
sg14
F1.4308391599119503
sg15
g740
sbs(I-37
I154
tp744
g0
(g9
g2
Ntp745
Rp746
(dp747
g13
I01
sg14
F-0.5422882809943756
sg15
g744
sbs(I-34
I154
tp748
g0
(g9
g2
Ntp749
Rp750
(dp751
g13
I01
sg14
F0.8399711056108132
sg15
g748
sbs(I-25
I0
tp752
g0
(g9
g2
Ntp753
Rp754
(dp755
g13
I01
sg14
F-2.522020917678519
sg15
g752
sbs(I-36
I2
tp756
g0
(g9
g2
Ntp757
Rp758
(dp759
g13
I01
sg14
F-2.526798117510442
sg15
g756
sbs(I-20
I154
tp760
g0
(g9
g2
Ntp761
Rp762
(dp763
g13
I01
sg14
F1.2472290182249863
sg15
g760
sbs(I-57
I154
tp764
g0
(g9
g2
Ntp765
Rp766
(dp767
g13
I01
sg14
F0.15048350183355103
sg15
g764
sbs(I-43
I2
tp768
g0
(g9
g2
Ntp769
Rp770
(dp771
g13
I01
sg14
F1.7161753605707142
sg15
g768
sbs(I-62
I1
tp772
g0
(g9
g2
Ntp773
Rp774
(dp775
g13
I01
sg14
F0.5792491322548995
sg15
g772
sbs(I-58
I155
tp776
g0
(g9
g2
Ntp777
Rp778
(dp779
g13
I01
sg14
F-0.24405169875852256
sg15
g776
sbs(I-36
I1
tp780
g0
(g9
g2
Ntp781
Rp782
(dp783
g13
I01
sg14
F1.4785821303428166
sg15
g780
sbs(I-54
I154
tp784
g0
(g9
g2
Ntp785
Rp786
(dp787
g13
I01
sg14
F-1.1631834546728823
sg15
g784
sbs(I-26
I155
tp788
g0
(g9
g2
Ntp789
Rp790
(dp791
g13
I01
sg14
F-0.27991826231523625
sg15
g788
sbs(I-24
I155
tp792
g0
(g9
g2
Ntp793
Rp794
(dp795
g13
I01
sg14
F-0.2199456205448387
sg15
g792
sbs(I-54
I3
tp796
g0
(g9
g2
Ntp797
Rp798
(dp799
g13
I01
sg14
F0.6264296873423748
sg15
g796
sbs(I-5
I3
tp800
g0
(g9
g2
Ntp801
Rp802
(dp803
g13
I01
sg14
F-0.2868045067292292
sg15
g800
sbs(I-76
I155
tp804
g0
(g9
g2
Ntp805
Rp806
(dp807
g13
I01
sg14
F0.4112327416570224
sg15
g804
sbs(I-33
I1
tp808
g0
(g9
g2
Ntp809
Rp810
(dp811
g13
I01
sg14
F1.581111182839308
sg15
g808
sbs(I-23
I154
tp812
g0
(g9
g2
Ntp813
Rp814
(dp815
g13
I01
sg14
F0.07013220929670402
sg15
g812
sbs(I-17
I155
tp816
g0
(g9
g2
Ntp817
Rp818
(dp819
g13
I01
sg14
F-0.6223630830685907
sg15
g816
sbs(I-5
I154
tp820
g0
(g9
g2
Ntp821
Rp822
(dp823
g13
I01
sg14
F-0.6748901095611959
sg15
g820
sbs(I-15
I155
tp824
g0
(g9
g2
Ntp825
Rp826
(dp827
g13
I01
sg14
F0.0328342994163594
sg15
g824
sbs(I-23
I1
tp828
g0
(g9
g2
Ntp829
Rp830
(dp831
g13
I01
sg14
F-1.9738266857909754
sg15
g828
sbs(I-51
I3
tp832
g0
(g9
g2
Ntp833
Rp834
(dp835
g13
I01
sg14
F1.016844623908669
sg15
g832
sbs(I-89
I155
tp836
g0
(g9
g2
Ntp837
Rp838
(dp839
g13
I01
sg14
F-1.9333352067658691
sg15
g836
sbs(I-16
I2
tp840
g0
(g9
g2
Ntp841
Rp842
(dp843
g13
I01
sg14
F-0.9346366779043533
sg15
g840
sbs(I-68
I3
tp844
g0
(g9
g2
Ntp845
Rp846
(dp847
g13
I01
sg14
F-0.14209071762306907
sg15
g844
sbs(I-39
I154
tp848
g0
(g9
g2
Ntp849
Rp850
(dp851
g13
I01
sg14
F1.5903714975984236
sg15
g848
sbs(I-37
I155
tp852
g0
(g9
g2
Ntp853
Rp854
(dp855
g13
I01
sg14
F-0.3922092316478301
sg15
g852
sbs(I-15
I3
tp856
g0
(g9
g2
Ntp857
Rp858
(dp859
g13
I01
sg14
F-0.3485621145840457
sg15
g856
sbs(I-27
I154
tp860
g0
(g9
g2
Ntp861
Rp862
(dp863
g13
I01
sg14
F-1.0891642295599133
sg15
g860
sbs(I-62
I2
tp864
g0
(g9
g2
Ntp865
Rp866
(dp867
g13
I01
sg14
F-1.5409615151025422
sg15
g864
sbs(I-85
I0
tp868
g0
(g9
g2
Ntp869
Rp870
(dp871
g13
I01
sg14
F-0.09970906893245329
sg15
g868
sbs(I-4
I154
tp872
g0
(g9
g2
Ntp873
Rp874
(dp875
g13
I01
sg14
F-0.8751379114749855
sg15
g872
sbs(I-93
I154
tp876
g0
(g9
g2
Ntp877
Rp878
(dp879
g13
I01
sg14
F0.7100136550674518
sg15
g876
sbs(I-60
I1
tp880
g0
(g9
g2
Ntp881
Rp882
(dp883
g13
I01
sg14
F-3.3954670429530216
sg15
g880
sbs(I-88
I154
tp884
g0
(g9
g2
Ntp885
Rp886
(dp887
g13
I01
sg14
F-2.699441893321305
sg15
g884
sbs(I-31
I2
tp888
g0
(g9
g2
Ntp889
Rp890
(dp891
g13
I01
sg14
F1.0334983377891336
sg15
g888
sbs(I-83
I1
tp892
g0
(g9
g2
Ntp893
Rp894
(dp895
g13
I01
sg14
F-0.44380855771244243
sg15
g892
sbs(I-10
I2
tp896
g0
(g9
g2
Ntp897
Rp898
(dp899
g13
I01
sg14
F-1.0753459499068339
sg15
g896
sbs(I-29
I3
tp900
g0
(g9
g2
Ntp901
Rp902
(dp903
g13
I01
sg14
F-2.3238884262666923
sg15
g900
sbs(I-10
I155
tp904
g0
(g9
g2
Ntp905
Rp906
(dp907
g13
I01
sg14
F-0.38721052139599665
sg15
g904
sbs(I-57
I155
tp908
g0
(g9
g2
Ntp909
Rp910
(dp911
g13
I01
sg14
F2.5533599551081307
sg15
g908
sbs(I-8
I155
tp912
g0
(g9
g2
Ntp913
Rp914
(dp915
g13
I01
sg14
F-0.3758137733682651
sg15
g912
sbs(I-30
I2
tp916
g0
(g9
g2
Ntp917
Rp918
(dp919
g13
I01
sg14
F-0.5245274862298357
sg15
g916
sbs(I-14
I155
tp920
g0
(g9
g2
Ntp921
Rp922
(dp923
g13
I01
sg14
F-2.139174457944722
sg15
g920
sbs(I-99
I0
tp924
g0
(g9
g2
Ntp925
Rp926
(dp927
g13
I01
sg14
F-0.6524261368274749
sg15
g924
sbs(I-75
I3
tp928
g0
(g9
g2
Ntp929
Rp930
(dp931
g13
I01
sg14
F-0.22521618733179308
sg15
g928
sbs(I-7
I154
tp932
g0
(g9
g2
Ntp933
Rp934
(dp935
g13
I01
sg14
F0.22826820405666803
sg15
g932
sbs(I-79
I154
tp936
g0
(g9
g2
Ntp937
Rp938
(dp939
g13
I01
sg14
F-0.7486127967838555
sg15
g936
sbs(I-45
I2
tp940
g0
(g9
g2
Ntp941
Rp942
(dp943
g13
I01
sg14
F0.23523604667804654
sg15
g940
sbs(I-21
I1
tp944
g0
(g9
g2
Ntp945
Rp946
(dp947
g13
I01
sg14
F-0.2763753553770246
sg15
g944
sbs(I-68
I154
tp948
g0
(g9
g2
Ntp949
Rp950
(dp951
g13
I01
sg14
F-2.0862456595627505
sg15
g948
sbs(I-63
I0
tp952
g0
(g9
g2
Ntp953
Rp954
(dp955
g13
I01
sg14
F1.8982987933466324
sg15
g952
sbs(I-39
I3
tp956
g0
(g9
g2
Ntp957
Rp958
(dp959
g13
I01
sg14
F0.06814906511899865
sg15
g956
sbs(I-91
I2
tp960
g0
(g9
g2
Ntp961
Rp962
(dp963
g13
I01
sg14
F1.3048985220848524
sg15
g960
sbs(I-37
I0
tp964
g0
(g9
g2
Ntp965
Rp966
(dp967
g13
I01
sg14
F0.7821006368092805
sg15
g964
sbs(I-89
I3
tp968
g0
(g9
g2
Ntp969
Rp970
(dp971
g13
I01
sg14
F-0.9076967094390331
sg15
g968
sbs(I-96
I155
tp972
g0
(g9
g2
Ntp973
Rp974
(dp975
g13
I01
sg14
F3.0963249011698486
sg15
g972
sbs(I-84
I1
tp976
g0
(g9
g2
Ntp977
Rp978
(dp979
g13
I01
sg14
F0.011536655561454223
sg15
g976
sbs(I-6
I154
tp980
g0
(g9
g2
Ntp981
Rp982
(dp983
g13
I01
sg14
F1.4615254045341735
sg15
g980
sbs(I-95
I154
tp984
g0
(g9
g2
Ntp985
Rp986
(dp987
g13
I01
sg14
F0.38579664752056203
sg15
g984
sbs(I-6
I0
tp988
g0
(g9
g2
Ntp989
Rp990
(dp991
g13
I01
sg14
F0.008762862428609797
sg15
g988
sbs(I-58
I1
tp992
g0
(g9
g2
Ntp993
Rp994
(dp995
g13
I01
sg14
F-0.28597041158851294
sg15
g992
sbs(I-72
I154
tp996
g0
(g9
g2
Ntp997
Rp998
(dp999
g13
I01
sg14
F1.3151166993709575
sg15
g996
sbs(I-4
I3
tp1000
g0
(g9
g2
Ntp1001
Rp1002
(dp1003
g13
I01
sg14
F1.6497897830487618
sg15
g1000
sbs(I-56
I154
tp1004
g0
(g9
g2
Ntp1005
Rp1006
(dp1007
g13
I01
sg14
F0.5562548617470784
sg15
g1004
sbs(I-100
I2
tp1008
g0
(g9
g2
Ntp1009
Rp1010
(dp1011
g13
I01
sg14
F-2.8809247175379618
sg15
g1008
sbs(I-48
I155
tp1012
g0
(g9
g2
Ntp1013
Rp1014
(dp1015
g13
I01
sg14
F-0.8352596840970257
sg15
g1012
sbs(I-7
I155
tp1016
g0
(g9
g2
Ntp1017
Rp1018
(dp1019
g13
I01
sg14
F-0.24308782527807576
sg15
g1016
sbs(I-3
I2
tp1020
g0
(g9
g2
Ntp1021
Rp1022
(dp1023
g13
I01
sg14
F0.11483270266154655
sg15
g1020
sbs(I-71
I1
tp1024
g0
(g9
g2
Ntp1025
Rp1026
(dp1027
g13
I01
sg14
F1.495117912293923
sg15
g1024
sbs(I-99
I3
tp1028
g0
(g9
g2
Ntp1029
Rp1030
(dp1031
g13
I01
sg14
F-1.8383648108168043
sg15
g1028
sbs(I-41
I155
tp1032
g0
(g9
g2
Ntp1033
Rp1034
(dp1035
g13
I01
sg14
F-1.6140369248914845
sg15
g1032
sbs(I-69
I2
tp1036
g0
(g9
g2
Ntp1037
Rp1038
(dp1039
g13
I01
sg14
F-0.8409671122023485
sg15
g1036
sbs(I-45
I1
tp1040
g0
(g9
g2
Ntp1041
Rp1042
(dp1043
g13
I01
sg14
F-1.1316652883617082
sg15
g1040
sbs(I-64
I2
tp1044
g0
(g9
g2
Ntp1045
Rp1046
(dp1047
g13
I01
sg14
F-0.638280057637271
sg15
g1044
sbs(I-66
I155
tp1048
g0
(g9
g2
Ntp1049
Rp1050
(dp1051
g13
I01
sg14
F0.21659921393761478
sg15
g1048
sbs(I-19
I1
tp1052
g0
(g9
g2
Ntp1053
Rp1054
(dp1055
g13
I01
sg14
F-0.18712849669698883
sg15
g1052
sbs(I-30
I155
tp1056
g0
(g9
g2
Ntp1057
Rp1058
(dp1059
g13
I01
sg14
F-1.7177866473598251
sg15
g1056
sbs(I-63
I3
tp1060
g0
(g9
g2
Ntp1061
Rp1062
(dp1063
g13
I01
sg14
F-2.0200878947539196
sg15
g1060
sbs(I-14
I3
tp1064
g0
(g9
g2
Ntp1065
Rp1066
(dp1067
g13
I01
sg14
F0.6227629549116933
sg15
g1064
sbs(I-97
I2
tp1068
g0
(g9
g2
Ntp1069
Rp1070
(dp1071
g13
I01
sg14
F-1.4051989488953183
sg15
g1068
sbs(I-17
I2
tp1072
g0
(g9
g2
Ntp1073
Rp1074
(dp1075
g13
I01
sg14
F-2.251244716047588
sg15
g1072
sbs(I-75
I155
tp1076
g0
(g9
g2
Ntp1077
Rp1078
(dp1079
g13
I01
sg14
F0.7124071665680737
sg15
g1076
sbs(I-63
I154
tp1080
g0
(g9
g2
Ntp1081
Rp1082
(dp1083
g13
I01
sg14
F-0.3312517072546653
sg15
g1080
sbs(I-81
I0
tp1084
g0
(g9
g2
Ntp1085
Rp1086
(dp1087
g13
I01
sg14
F3.1821310234576137
sg15
g1084
sbs(I-45
I154
tp1088
g0
(g9
g2
Ntp1089
Rp1090
(dp1091
g13
I01
sg14
F-0.3108709342266147
sg15
g1088
sbs(I-56
I0
tp1092
g0
(g9
g2
Ntp1093
Rp1094
(dp1095
g13
I01
sg14
F-1.5667360813267521
sg15
g1092
sbs(I-40
I154
tp1096
g0
(g9
g2
Ntp1097
Rp1098
(dp1099
g13
I01
sg14
F-1.7395648677035305
sg15
g1096
sbs(I-35
I0
tp1100
g0
(g9
g2
Ntp1101
Rp1102
(dp1103
g13
I01
sg14
F-1.1402201492845117
sg15
g1100
sbs(I-30
I0
tp1104
g0
(g9
g2
Ntp1105
Rp1106
(dp1107
g13
I01
sg14
F-0.8746381398095803
sg15
g1104
sbs(I-82
I1
tp1108
g0
(g9
g2
Ntp1109
Rp1110
(dp1111
g13
I01
sg14
F-1.5727463088111007
sg15
g1108
sbs(I-58
I2
tp1112
g0
(g9
g2
Ntp1113
Rp1114
(dp1115
g13
I01
sg14
F-1.592912364225921
sg15
g1112
sbs(I-9
I0
tp1116
g0
(g9
g2
Ntp1117
Rp1118
(dp1119
g13
I01
sg14
F-0.08899105053533585
sg15
g1116
sbs(I-77
I3
tp1120
g0
(g9
g2
Ntp1121
Rp1122
(dp1123
g13
I01
sg14
F-0.805111144434314
sg15
g1120
sbs(I-54
I0
tp1124
g0
(g9
g2
Ntp1125
Rp1126
(dp1127
g13
I01
sg14
F1.7586998174549184
sg15
g1124
sbs(I-9
I155
tp1128
g0
(g9
g2
Ntp1129
Rp1130
(dp1131
g13
I01
sg14
F-1.4153029776021862
sg15
g1128
sbs(I-67
I154
tp1132
g0
(g9
g2
Ntp1133
Rp1134
(dp1135
g13
I01
sg14
F0.36653568831545397
sg15
g1132
sbs(I-95
I1
tp1136
g0
(g9
g2
Ntp1137
Rp1138
(dp1139
g13
I01
sg14
F2.249815897726694
sg15
g1136
sbs(I-22
I2
tp1140
g0
(g9
g2
Ntp1141
Rp1142
(dp1143
g13
I01
sg14
F-0.03792952259031529
sg15
g1140
sbs(I-74
I3
tp1144
g0
(g9
g2
Ntp1145
Rp1146
(dp1147
g13
I01
sg14
F0.3204287123780695
sg15
g1144
sbs(I-25
I3
tp1148
g0
(g9
g2
Ntp1149
Rp1150
(dp1151
g13
I01
sg14
F2.4579620055058795
sg15
g1148
sbs(I-32
I155
tp1152
g0
(g9
g2
Ntp1153
Rp1154
(dp1155
g13
I01
sg14
F-0.7066590297463685
sg15
g1152
sbs(I-69
I1
tp1156
g0
(g9
g2
Ntp1157
Rp1158
(dp1159
g13
I01
sg14
F-0.8799863783042403
sg15
g1156
sbs(I-20
I1
tp1160
g0
(g9
g2
Ntp1161
Rp1162
(dp1163
g13
I01
sg14
F-1.6142181620415308
sg15
g1160
sbs(I-84
I155
tp1164
g0
(g9
g2
Ntp1165
Rp1166
(dp1167
g13
I01
sg14
F0.8117132173573364
sg15
g1164
sbs(I-43
I155
tp1168
g0
(g9
g2
Ntp1169
Rp1170
(dp1171
g13
I01
sg14
F-0.03765283671568381
sg15
g1168
sbs(I-19
I154
tp1172
g0
(g9
g2
Ntp1173
Rp1174
(dp1175
g13
I01
sg14
F0.33422223963113495
sg15
g1172
sbs(I-41
I2
tp1176
g0
(g9
g2
Ntp1177
Rp1178
(dp1179
g13
I01
sg14
F-1.0881420889810829
sg15
g1176
sbs(I155
I3
tp1180
g0
(g9
g2
Ntp1181
Rp1182
(dp1183
g13
I01
sg14
F0.785521587854835
sg15
g1180
sbs(I-50
I155
tp1184
g0
(g9
g2
Ntp1185
Rp1186
(dp1187
g13
I01
sg14
F-0.09895854846604235
sg15
g1184
sbs(I-97
I155
tp1188
g0
(g9
g2
Ntp1189
Rp1190
(dp1191
g13
I01
sg14
F-0.11212657994342257
sg15
g1188
sbs(I-73
I0
tp1192
g0
(g9
g2
Ntp1193
Rp1194
(dp1195
g13
I01
sg14
F0.2072020171502103
sg15
g1192
sbs(I-80
I0
tp1196
g0
(g9
g2
Ntp1197
Rp1198
(dp1199
g13
I01
sg14
F-0.7806728358413597
sg15
g1196
sbs(I-54
I155
tp1200
g0
(g9
g2
Ntp1201
Rp1202
(dp1203
g13
I01
sg14
F1.6325168118318132
sg15
g1200
sbs(I-7
I1
tp1204
g0
(g9
g2
Ntp1205
Rp1206
(dp1207
g13
I01
sg14
F-1.4379691644426777
sg15
g1204
sbs(I154
I0
tp1208
g0
(g9
g2
Ntp1209
Rp1210
(dp1211
g13
I01
sg14
F0.7503972936964667
sg15
g1208
sbs(I-5
I2
tp1212
g0
(g9
g2
Ntp1213
Rp1214
(dp1215
g13
I01
sg14
F0.8114133744354053
sg15
g1212
sbs(I-24
I0
tp1216
g0
(g9
g2
Ntp1217
Rp1218
(dp1219
g13
I01
sg14
F2.654817125100166
sg15
g1216
sbs(I-28
I0
tp1220
g0
(g9
g2
Ntp1221
Rp1222
(dp1223
g13
I01
sg14
F-0.42882490621506886
sg15
g1220
sbssS'nodes'
p1224
(dp1225
I0
g0
(cneat.genes
DefaultNodeGene
p1226
g2
Ntp1227
Rp1228
(dp1229
S'activation'
p1230
S'sigmoid'
p1231
sS'bias'
p1232
F1.019205678897115
sS'response'
p1233
F1.0
sg15
I0
sS'aggregation'
p1234
S'sum'
p1235
sbsI1
g0
(g1226
g2
Ntp1236
Rp1237
(dp1238
g1230
g1231
sg1232
F-0.006738495822178309
sg1233
F1.0
sg15
I1
sg1234
g1235
sbsI2
g0
(g1226
g2
Ntp1239
Rp1240
(dp1241
g1230
g1231
sg1232
F0.10603885302090477
sg1233
F1.0
sg15
I2
sg1234
g1235
sbsI3
g0
(g1226
g2
Ntp1242
Rp1243
(dp1244
g1230
g1231
sg1232
F0.2608351520514676
sg1233
F1.0
sg15
I3
sg1234
g1235
sbsI154
g0
(g1226
g2
Ntp1245
Rp1246
(dp1247
g1230
g1231
sg1232
F0.33592688434775647
sg1233
F1.0
sg15
I154
sg1234
g1235
sbsI155
g0
(g1226
g2
Ntp1248
Rp1249
(dp1250
g1230
g1231
sg1232
F-0.03704510653995591
sg1233
F1.0
sg15
I155
sg1234
g1235
sbssg15
I1349
sS'fitness'
p1251
I42
sb.